---
triple:          'arm64-apple-darwin'
binary-path:     '/Users/d308292/github_repos/senior-compiler/src/Parser'
relocations:
  - { offsetInCU: 0xA42D, offset: 0xA42D, size: 0x8, addend: 0x0, symName: __ZStL8__ioinit, symObjAddr: 0x2DA58, symBinAddr: 0x100028000, symSize: 0x0 }
  - { offsetInCU: 0xA7FB, offset: 0xA7FB, size: 0x8, addend: 0x0, symName: __GLOBAL__sub_I_BinaryExpr.cpp, symObjAddr: 0x2098, symBinAddr: 0x10000585C, symSize: 0x1C }
  - { offsetInCU: 0xA81E, offset: 0xA81E, size: 0x8, addend: 0x0, symName: __Z41__static_initialization_and_destruction_0ii, symObjAddr: 0x2038, symBinAddr: 0x1000057FC, symSize: 0x60 }
  - { offsetInCU: 0xA870, offset: 0xA870, size: 0x8, addend: 0x0, symName: __ZNSt19bad_optional_accessD0Ev, symObjAddr: 0x1D8C, symBinAddr: 0x1000057D4, symSize: 0x28 }
  - { offsetInCU: 0xA89A, offset: 0xA89A, size: 0x8, addend: 0x0, symName: __ZNSt19bad_optional_accessD1Ev, symObjAddr: 0x1D58, symBinAddr: 0x1000057A0, symSize: 0x34 }
  - { offsetInCU: 0xA8A1, offset: 0xA8A1, size: 0x8, addend: 0x0, symName: __ZNSt10_Head_baseILm0EP4ExprLb0EE7_M_headERKS2_, symObjAddr: 0x1D44, symBinAddr: 0x10000578C, symSize: 0x14 }
  - { offsetInCU: 0xA8C9, offset: 0xA8C9, size: 0x8, addend: 0x0, symName: __ZNSt11_Tuple_implILm0EJP4ExprSt14default_deleteIS0_EEE7_M_headERKS4_, symObjAddr: 0x1D28, symBinAddr: 0x100005770, symSize: 0x1C }
  - { offsetInCU: 0xA8F3, offset: 0xA8F3, size: 0x8, addend: 0x0, symName: __ZNSt10_Head_baseILm1ESt14default_deleteI4ExprELb1EE7_M_headERS3_, symObjAddr: 0x1D14, symBinAddr: 0x10000575C, symSize: 0x14 }
  - { offsetInCU: 0xA91B, offset: 0xA91B, size: 0x8, addend: 0x0, symName: __ZNSt10_Head_baseILm0EP4ExprLb0EE7_M_headERS2_, symObjAddr: 0x1D00, symBinAddr: 0x100005748, symSize: 0x14 }
  - { offsetInCU: 0xA943, offset: 0xA943, size: 0x8, addend: 0x0, symName: __ZSt12__get_helperILm0EP4ExprJSt14default_deleteIS0_EEERKT0_RKSt11_Tuple_implIXT_EJS4_DpT1_EE, symObjAddr: 0x1CE4, symBinAddr: 0x10000572C, symSize: 0x1C }
  - { offsetInCU: 0xA98B, offset: 0xA98B, size: 0x8, addend: 0x0, symName: __ZNSt11_Tuple_implILm1EJSt14default_deleteI4ExprEEE7_M_headERS3_, symObjAddr: 0x1CC8, symBinAddr: 0x100005710, symSize: 0x1C }
  - { offsetInCU: 0xA9B5, offset: 0xA9B5, size: 0x8, addend: 0x0, symName: __ZNSt11_Tuple_implILm0EJP4ExprSt14default_deleteIS0_EEE7_M_headERS4_, symObjAddr: 0x1CAC, symBinAddr: 0x1000056F4, symSize: 0x1C }
  - { offsetInCU: 0xAA32, offset: 0xAA32, size: 0x8, addend: 0x0, symName: __ZNSt10_Head_baseILm1ESt14default_deleteI4ExprELb1EEC2Ev, symObjAddr: 0x1C98, symBinAddr: 0x1000056E0, symSize: 0x14 }
  - { offsetInCU: 0xAA25, offset: 0xAA25, size: 0x8, addend: 0x0, symName: __ZSt3getILm0EJP4ExprSt14default_deleteIS0_EEERKNSt13tuple_elementIXT_ESt5tupleIJDpT0_EEE4typeERKS8_, symObjAddr: 0x1C7C, symBinAddr: 0x1000056C4, symSize: 0x1C }
  - { offsetInCU: 0xAA69, offset: 0xAA69, size: 0x8, addend: 0x0, symName: __ZSt12__get_helperILm1ESt14default_deleteI4ExprEJEERT0_RSt11_Tuple_implIXT_EJS3_DpT1_EE, symObjAddr: 0x1C60, symBinAddr: 0x1000056A8, symSize: 0x1C }
  - { offsetInCU: 0xAAAB, offset: 0xAAAB, size: 0x8, addend: 0x0, symName: __ZSt12__get_helperILm0EP4ExprJSt14default_deleteIS0_EEERT0_RSt11_Tuple_implIXT_EJS4_DpT1_EE, symObjAddr: 0x1C44, symBinAddr: 0x10000568C, symSize: 0x1C }
  - { offsetInCU: 0xAB33, offset: 0xAB33, size: 0x8, addend: 0x0, symName: __ZNSt10_Head_baseILm0EP4ExprLb0EEC2Ev, symObjAddr: 0x1C28, symBinAddr: 0x100005670, symSize: 0x1C }
  - { offsetInCU: 0xAB85, offset: 0xAB85, size: 0x8, addend: 0x0, symName: __ZNSt11_Tuple_implILm1EJSt14default_deleteI4ExprEEEC2Ev, symObjAddr: 0x1C08, symBinAddr: 0x100005650, symSize: 0x20 }
  - { offsetInCU: 0xAB7F, offset: 0xAB7F, size: 0x8, addend: 0x0, symName: __ZSt4moveIRfEONSt16remove_referenceIT_E4typeEOS2_, symObjAddr: 0x1BF4, symBinAddr: 0x10000563C, symSize: 0x14 }
  - { offsetInCU: 0xABBC, offset: 0xABBC, size: 0x8, addend: 0x0, symName: __ZSt4moveIRiEONSt16remove_referenceIT_E4typeEOS2_, symObjAddr: 0x1BE0, symBinAddr: 0x100005628, symSize: 0x14 }
  - { offsetInCU: 0xABF1, offset: 0xABF1, size: 0x8, addend: 0x0, symName: __ZNKSt15__uniq_ptr_implI4ExprSt14default_deleteIS0_EE6_M_ptrEv, symObjAddr: 0x1BC0, symBinAddr: 0x100005608, symSize: 0x20 }
  - { offsetInCU: 0xAC1B, offset: 0xAC1B, size: 0x8, addend: 0x0, symName: __ZNSt22_Optional_payload_baseI5TokenE6_M_getEv, symObjAddr: 0x1BAC, symBinAddr: 0x1000055F4, symSize: 0x14 }
  - { offsetInCU: 0xAC47, offset: 0xAC47, size: 0x8, addend: 0x0, symName: __ZSt3getILm1EJP4ExprSt14default_deleteIS0_EEERNSt13tuple_elementIXT_ESt5tupleIJDpT0_EEE4typeERS8_, symObjAddr: 0x1B90, symBinAddr: 0x1000055D8, symSize: 0x1C }
  - { offsetInCU: 0xAC91, offset: 0xAC91, size: 0x8, addend: 0x0, symName: __ZSt3getILm0EJP4ExprSt14default_deleteIS0_EEERNSt13tuple_elementIXT_ESt5tupleIJDpT0_EEE4typeERS8_, symObjAddr: 0x1B74, symBinAddr: 0x1000055BC, symSize: 0x1C }
  - { offsetInCU: 0xAD2B, offset: 0xAD2B, size: 0x8, addend: 0x0, symName: __ZNSt11_Tuple_implILm0EJP4ExprSt14default_deleteIS0_EEEC2Ev, symObjAddr: 0x1B4C, symBinAddr: 0x100005594, symSize: 0x28 }
  - { offsetInCU: 0xAD15, offset: 0xAD15, size: 0x8, addend: 0x0, symName: __ZNSt3any17_Manager_externalINSt7__cxx1112basic_stringIcSt11char_traitsIcESaIcEEEE9_S_createIS6_EEvRNS_8_StorageEOT_, symObjAddr: 0x1B00, symBinAddr: 0x100005548, symSize: 0x4C }
  - { offsetInCU: 0xAD5F, offset: 0xAD5F, size: 0x8, addend: 0x0, symName: __ZSt7forwardINSt7__cxx1112basic_stringIcSt11char_traitsIcESaIcEEEEOT_RNSt16remove_referenceIS6_E4typeE, symObjAddr: 0x1AEC, symBinAddr: 0x100005534, symSize: 0x14 }
  - { offsetInCU: 0xAD90, offset: 0xAD90, size: 0x8, addend: 0x0, symName: __ZNSt3any17_Manager_externalINSt7__cxx1112basic_stringIcSt11char_traitsIcESaIcEEEE9_S_manageENS_3_OpEPKS_PNS_4_ArgE, symObjAddr: 0x1984, symBinAddr: 0x1000053CC, symSize: 0x168 }
  - { offsetInCU: 0xADF3, offset: 0xADF3, size: 0x8, addend: 0x0, symName: __ZNSt3any17_Manager_internalIfE9_S_createIfEEvRNS_8_StorageEOT_, symObjAddr: 0x1934, symBinAddr: 0x10000537C, symSize: 0x50 }
  - { offsetInCU: 0xAE4E, offset: 0xAE4E, size: 0x8, addend: 0x0, symName: __ZSt7forwardIfEOT_RNSt16remove_referenceIS0_E4typeE, symObjAddr: 0x1920, symBinAddr: 0x100005368, symSize: 0x14 }
  - { offsetInCU: 0xAE7F, offset: 0xAE7F, size: 0x8, addend: 0x0, symName: __ZNSt3any17_Manager_internalIfE9_S_manageENS_3_OpEPKS_PNS_4_ArgE, symObjAddr: 0x17F0, symBinAddr: 0x100005238, symSize: 0x130 }
  - { offsetInCU: 0xAEE8, offset: 0xAEE8, size: 0x8, addend: 0x0, symName: __ZNSt3any17_Manager_internalIiE9_S_createIiEEvRNS_8_StorageEOT_, symObjAddr: 0x17A0, symBinAddr: 0x1000051E8, symSize: 0x50 }
  - { offsetInCU: 0xAF43, offset: 0xAF43, size: 0x8, addend: 0x0, symName: __ZSt7forwardIiEOT_RNSt16remove_referenceIS0_E4typeE, symObjAddr: 0x178C, symBinAddr: 0x1000051D4, symSize: 0x14 }
  - { offsetInCU: 0xAF74, offset: 0xAF74, size: 0x8, addend: 0x0, symName: __ZNSt3any17_Manager_internalIiE9_S_manageENS_3_OpEPKS_PNS_4_ArgE, symObjAddr: 0x165C, symBinAddr: 0x1000050A4, symSize: 0x130 }
  - { offsetInCU: 0xAFD5, offset: 0xAFD5, size: 0x8, addend: 0x0, symName: __ZNKSt10unique_ptrI4ExprSt14default_deleteIS0_EE3getEv, symObjAddr: 0x1640, symBinAddr: 0x100005088, symSize: 0x1C }
  - { offsetInCU: 0xAFFF, offset: 0xAFFF, size: 0x8, addend: 0x0, symName: __ZNSt19_Optional_base_implI5TokenSt14_Optional_baseIS0_Lb0ELb0EEE6_M_getEv, symObjAddr: 0x15E8, symBinAddr: 0x100005030, symSize: 0x58 }
  - { offsetInCU: 0xB029, offset: 0xB029, size: 0x8, addend: 0x0, symName: __ZNKSt19_Optional_base_implI5TokenSt14_Optional_baseIS0_Lb0ELb0EEE13_M_is_engagedEv, symObjAddr: 0x15D0, symBinAddr: 0x100005018, symSize: 0x18 }
  - { offsetInCU: 0xB05B, offset: 0xB05B, size: 0x8, addend: 0x0, symName: __ZSt7forwardISt14default_deleteI4ExprEEOT_RNSt16remove_referenceIS3_E4typeE, symObjAddr: 0x15BC, symBinAddr: 0x100005004, symSize: 0x14 }
  - { offsetInCU: 0xB090, offset: 0xB090, size: 0x8, addend: 0x0, symName: __ZNSt15__uniq_ptr_implI4ExprSt14default_deleteIS0_EE10_M_deleterEv, symObjAddr: 0x15A0, symBinAddr: 0x100004FE8, symSize: 0x1C }
  - { offsetInCU: 0xB0BA, offset: 0xB0BA, size: 0x8, addend: 0x0, symName: __ZNSt15__uniq_ptr_implI4ExprSt14default_deleteIS0_EE7releaseEv, symObjAddr: 0x156C, symBinAddr: 0x100004FB4, symSize: 0x34 }
  - { offsetInCU: 0xB0F4, offset: 0xB0F4, size: 0x8, addend: 0x0, symName: __ZNSt15__uniq_ptr_implI4ExprSt14default_deleteIS0_EE5resetEPS0_, symObjAddr: 0x150C, symBinAddr: 0x100004F54, symSize: 0x60 }
  - { offsetInCU: 0xB13D, offset: 0xB13D, size: 0x8, addend: 0x0, symName: __ZNKSt14default_deleteI4ExprEclEPS0_, symObjAddr: 0x14DC, symBinAddr: 0x100004F24, symSize: 0x30 }
  - { offsetInCU: 0xB178, offset: 0xB178, size: 0x8, addend: 0x0, symName: __ZSt4moveIRP4ExprEONSt16remove_referenceIT_E4typeEOS4_, symObjAddr: 0x14C8, symBinAddr: 0x100004F10, symSize: 0x14 }
  - { offsetInCU: 0xB1AD, offset: 0xB1AD, size: 0x8, addend: 0x0, symName: __ZNSt10unique_ptrI4ExprSt14default_deleteIS0_EE11get_deleterEv, symObjAddr: 0x14AC, symBinAddr: 0x100004EF4, symSize: 0x1C }
  - { offsetInCU: 0xB1D7, offset: 0xB1D7, size: 0x8, addend: 0x0, symName: __ZNSt15__uniq_ptr_implI4ExprSt14default_deleteIS0_EE6_M_ptrEv, symObjAddr: 0x1490, symBinAddr: 0x100004ED8, symSize: 0x1C }
  - { offsetInCU: 0xB25C, offset: 0xB25C, size: 0x8, addend: 0x0, symName: __ZNSt5tupleIJP4ExprSt14default_deleteIS0_EEEC1ILb1ELb1EEEv, symObjAddr: 0x1470, symBinAddr: 0x100004EB8, symSize: 0x20 }
  - { offsetInCU: 0xB257, offset: 0xB257, size: 0x8, addend: 0x0, symName: __ZSt4moveIRNSt7__cxx1112basic_stringIcSt11char_traitsIcESaIcEEEEONSt16remove_referenceIT_E4typeEOS8_, symObjAddr: 0x145C, symBinAddr: 0x100004EA4, symSize: 0x14 }
  - { offsetInCU: 0xB333, offset: 0xB333, size: 0x8, addend: 0x0, symName: __ZNSt3anyC1INSt7__cxx1112basic_stringIcSt11char_traitsIcESaIcEEES6_NS_17_Manager_externalIS6_EELb1EEEOT_, symObjAddr: 0x1400, symBinAddr: 0x100004E48, symSize: 0x5C }
  - { offsetInCU: 0xB388, offset: 0xB388, size: 0x8, addend: 0x0, symName: __ZNSt3anyC1IffNS_17_Manager_internalIfEELb1EEEOT_, symObjAddr: 0x13A4, symBinAddr: 0x100004DEC, symSize: 0x5C }
  - { offsetInCU: 0xB414, offset: 0xB414, size: 0x8, addend: 0x0, symName: __ZNSt3anyC1IiiNS_17_Manager_internalIiEELb1EEEOT_, symObjAddr: 0x1348, symBinAddr: 0x100004D90, symSize: 0x5C }
  - { offsetInCU: 0xB430, offset: 0xB430, size: 0x8, addend: 0x0, symName: __ZNKSt10unique_ptrI4ExprSt14default_deleteIS0_EEptEv, symObjAddr: 0x132C, symBinAddr: 0x100004D74, symSize: 0x1C }
  - { offsetInCU: 0xB45A, offset: 0xB45A, size: 0x8, addend: 0x0, symName: __ZNRSt8optionalI5TokenE5valueEv, symObjAddr: 0x12F8, symBinAddr: 0x100004D40, symSize: 0x34 }
  - { offsetInCU: 0xB484, offset: 0xB484, size: 0x8, addend: 0x0, symName: __ZNSt15__uniq_ptr_implI4ExprSt14default_deleteIS0_EEaSEOS3_, symObjAddr: 0x12B4, symBinAddr: 0x100004CFC, symSize: 0x44 }
  - { offsetInCU: 0xB4BF, offset: 0xB4BF, size: 0x8, addend: 0x0, symName: __ZSt4moveIRSt10unique_ptrI4ExprSt14default_deleteIS1_EEEONSt16remove_referenceIT_E4typeEOS7_, symObjAddr: 0x12A0, symBinAddr: 0x100004CE8, symSize: 0x14 }
  - { offsetInCU: 0xB559, offset: 0xB559, size: 0x8, addend: 0x0, symName: __ZNSt10unique_ptrI4ExprSt14default_deleteIS0_EED1Ev, symObjAddr: 0x1238, symBinAddr: 0x100004C80, symSize: 0x68 }
  - { offsetInCU: 0xB5D5, offset: 0xB5D5, size: 0x8, addend: 0x0, symName: __ZNSt10unique_ptrI4ExprSt14default_deleteIS0_EEC1IS2_vEEv, symObjAddr: 0x1210, symBinAddr: 0x100004C58, symSize: 0x28 }
  - { offsetInCU: 0xB644, offset: 0xB644, size: 0x8, addend: 0x0, symName: __ZNSt15__uniq_ptr_dataI4ExprSt14default_deleteIS0_ELb1ELb1EECI1St15__uniq_ptr_implIS0_S2_EEv, symObjAddr: 0x11F0, symBinAddr: 0x100004C38, symSize: 0x20 }
  - { offsetInCU: 0xB660, offset: 0xB660, size: 0x8, addend: 0x0, symName: __ZNSt15__uniq_ptr_implI4ExprSt14default_deleteIS0_EEC2Ev, symObjAddr: 0x11D0, symBinAddr: 0x100004C18, symSize: 0x20 }
  - { offsetInCU: 0xB64D, offset: 0xB64D, size: 0x8, addend: 0x0, symName: __ZStplIcSt11char_traitsIcESaIcEENSt7__cxx1112basic_stringIT_T0_T1_EEOS8_S9_, symObjAddr: 0x10F0, symBinAddr: 0x100004B38, symSize: 0xE0 }
  - { offsetInCU: 0xB6DC, offset: 0xB6DC, size: 0x8, addend: 0x0, symName: __ZN10BinaryExpr6acceptEP7Visitor, symObjAddr: 0x10BC, symBinAddr: 0x100004B04, symSize: 0x34 }
  - { offsetInCU: 0xB715, offset: 0xB715, size: 0x8, addend: 0x0, symName: __ZN10BinaryExpr8getValueEv, symObjAddr: 0x590, symBinAddr: 0x100003FD8, symSize: 0xB2C }
  - { offsetInCU: 0xB7F5, offset: 0xB7F5, size: 0x8, addend: 0x0, symName: __ZN10BinaryExprC1ERSt10unique_ptrI4ExprSt14default_deleteIS1_EESt8optionalI5TokenES5_, symObjAddr: 0x4B0, symBinAddr: 0x100003EF8, symSize: 0xE0 }
  - { offsetInCU: 0xB83B, offset: 0xB83B, size: 0x8, addend: 0x0, symName: __ZN10BinaryExprC2ERSt10unique_ptrI4ExprSt14default_deleteIS1_EESt8optionalI5TokenES5_, symObjAddr: 0x3D0, symBinAddr: 0x100003E18, symSize: 0xE0 }
  - { offsetInCU: 0xB82F, offset: 0xB82F, size: 0x8, addend: 0x0, symName: __ZN5TokenaSERKS_, symObjAddr: 0x390, symBinAddr: 0x100003DD8, symSize: 0x40 }
  - { offsetInCU: 0xB861, offset: 0xB861, size: 0x8, addend: 0x0, symName: __ZNSt10unique_ptrI4ExprSt14default_deleteIS0_EEaSEOS3_, symObjAddr: 0x368, symBinAddr: 0x100003DB0, symSize: 0x28 }
  - { offsetInCU: 0xB894, offset: 0xB894, size: 0x8, addend: 0x0, symName: __ZNSt15__uniq_ptr_dataI4ExprSt14default_deleteIS0_ELb1ELb1EEaSEOS3_, symObjAddr: 0x340, symBinAddr: 0x100003D88, symSize: 0x28 }
  - { offsetInCU: 0xB8F8, offset: 0xB8F8, size: 0x8, addend: 0x0, symName: __ZN5TokenD1Ev, symObjAddr: 0x31C, symBinAddr: 0x100003D64, symSize: 0x24 }
  - { offsetInCU: 0xB93A, offset: 0xB93A, size: 0x8, addend: 0x0, symName: __ZN4ExprC2Ev, symObjAddr: 0x2F4, symBinAddr: 0x100003D3C, symSize: 0x28 }
  - { offsetInCU: 0xB97B, offset: 0xB97B, size: 0x8, addend: 0x0, symName: __ZN5TokenC1Ev, symObjAddr: 0x2D0, symBinAddr: 0x100003D18, symSize: 0x24 }
  - { offsetInCU: 0xB994, offset: 0xB994, size: 0x8, addend: 0x0, symName: __ZSt27__throw_bad_optional_accessv, symObjAddr: 0x294, symBinAddr: 0x100003CDC, symSize: 0x3C }
  - { offsetInCU: 0xB9E4, offset: 0xB9E4, size: 0x8, addend: 0x0, symName: __ZNSt19bad_optional_accessC1Ev, symObjAddr: 0x260, symBinAddr: 0x100003CA8, symSize: 0x34 }
  - { offsetInCU: 0xB9EF, offset: 0xB9EF, size: 0x8, addend: 0x0, symName: __ZNKSt19bad_optional_access4whatEv, symObjAddr: 0x248, symBinAddr: 0x100003C90, symSize: 0x18 }
  - { offsetInCU: 0xBA19, offset: 0xBA19, size: 0x8, addend: 0x0, symName: __ZNKSt3any9has_valueEv, symObjAddr: 0x224, symBinAddr: 0x100003C6C, symSize: 0x24 }
  - { offsetInCU: 0xBA43, offset: 0xBA43, size: 0x8, addend: 0x0, symName: __ZNSt3any5resetEv, symObjAddr: 0x1DC, symBinAddr: 0x100003C24, symSize: 0x48 }
  - { offsetInCU: 0xBA6D, offset: 0xBA6D, size: 0x8, addend: 0x0, symName: __ZNSt3anyaSEOS_, symObjAddr: 0x160, symBinAddr: 0x100003BA8, symSize: 0x7C }
  - { offsetInCU: 0xBAC9, offset: 0xBAC9, size: 0x8, addend: 0x0, symName: __ZNSt3anyaSERKS_, symObjAddr: 0x120, symBinAddr: 0x100003B68, symSize: 0x40 }
  - { offsetInCU: 0xBB30, offset: 0xBB30, size: 0x8, addend: 0x0, symName: __ZNSt3anyD1Ev, symObjAddr: 0x100, symBinAddr: 0x100003B48, symSize: 0x20 }
  - { offsetInCU: 0xBB90, offset: 0xBB90, size: 0x8, addend: 0x0, symName: __ZNSt3anyC1ERKS_, symObjAddr: 0x90, symBinAddr: 0x100003AD8, symSize: 0x70 }
  - { offsetInCU: 0xBC03, offset: 0xBC03, size: 0x8, addend: 0x0, symName: __ZNSt3anyC1Ev, symObjAddr: 0x64, symBinAddr: 0x100003AAC, symSize: 0x2C }
  - { offsetInCU: 0xBC4C, offset: 0xBC4C, size: 0x8, addend: 0x0, symName: __ZNSt3any8_StorageC1Ev, symObjAddr: 0x48, symBinAddr: 0x100003A90, symSize: 0x1C }
  - { offsetInCU: 0xBC6B, offset: 0xBC6B, size: 0x8, addend: 0x0, symName: __ZnwmPv, symObjAddr: 0x30, symBinAddr: 0x100003A78, symSize: 0x18 }
  - { offsetInCU: 0xBCC5, offset: 0xBCC5, size: 0x8, addend: 0x0, symName: __ZNSt9exceptionC2Ev, symObjAddr: 0x8, symBinAddr: 0x100003A50, symSize: 0x28 }
  - { offsetInCU: 0xBCD8, offset: 0xBCD8, size: 0x8, addend: 0x0, symName: __ZSt23__is_constant_evaluatedv, symObjAddr: 0x0, symBinAddr: 0x100003A48, symSize: 0x8 }
  - { offsetInCU: 0x30CF, offset: 0xEDBA, size: 0x8, addend: 0x0, symName: __ZStL8__ioinit, symObjAddr: 0x1B858, symBinAddr: 0x100028001, symSize: 0x0 }
  - { offsetInCU: 0x3628, offset: 0xF313, size: 0x8, addend: 0x0, symName: __GLOBAL__sub_I_Interpreter.cpp, symObjAddr: 0x58C, symBinAddr: 0x100005BFC, symSize: 0x1C }
  - { offsetInCU: 0x364A, offset: 0xF335, size: 0x8, addend: 0x0, symName: __Z41__static_initialization_and_destruction_0ii, symObjAddr: 0x52C, symBinAddr: 0x100005B9C, symSize: 0x60 }
  - { offsetInCU: 0x365D, offset: 0xF348, size: 0x8, addend: 0x0, symName: __ZNK9__gnu_cxx17__normal_iteratorIPSt10unique_ptrI4ExprSt14default_deleteIS2_EESt6vectorIS5_SaIS5_EEE4baseEv, symObjAddr: 0x3B8, symBinAddr: 0x100005B88, symSize: 0x14 }
  - { offsetInCU: 0x3719, offset: 0xF404, size: 0x8, addend: 0x0, symName: __ZN9__gnu_cxx17__normal_iteratorIPSt10unique_ptrI4ExprSt14default_deleteIS2_EESt6vectorIS5_SaIS5_EEEC1ERKS6_, symObjAddr: 0x390, symBinAddr: 0x100005B60, symSize: 0x28 }
  - { offsetInCU: 0x36DE, offset: 0xF3C9, size: 0x8, addend: 0x0, symName: __ZNK9__gnu_cxx17__normal_iteratorIPSt10unique_ptrI4ExprSt14default_deleteIS2_EESt6vectorIS5_SaIS5_EEEdeEv, symObjAddr: 0x35C, symBinAddr: 0x100005B48, symSize: 0x18 }
  - { offsetInCU: 0x3708, offset: 0xF3F3, size: 0x8, addend: 0x0, symName: __ZN9__gnu_cxx17__normal_iteratorIPSt10unique_ptrI4ExprSt14default_deleteIS2_EESt6vectorIS5_SaIS5_EEEppEv, symObjAddr: 0x334, symBinAddr: 0x100005B20, symSize: 0x28 }
  - { offsetInCU: 0x3734, offset: 0xF41F, size: 0x8, addend: 0x0, symName: __ZN9__gnu_cxxneIPSt10unique_ptrI4ExprSt14default_deleteIS2_EESt6vectorIS5_SaIS5_EEEEbRKNS_17__normal_iteratorIT_T0_EESF_, symObjAddr: 0x2F0, symBinAddr: 0x100005ADC, symSize: 0x44 }
  - { offsetInCU: 0x3785, offset: 0xF470, size: 0x8, addend: 0x0, symName: __ZNSt6vectorISt10unique_ptrI4ExprSt14default_deleteIS1_EESaIS4_EE3endEv, symObjAddr: 0x2C8, symBinAddr: 0x100005AB4, symSize: 0x28 }
  - { offsetInCU: 0x37AF, offset: 0xF49A, size: 0x8, addend: 0x0, symName: __ZNSt6vectorISt10unique_ptrI4ExprSt14default_deleteIS1_EESaIS4_EE5beginEv, symObjAddr: 0x2A4, symBinAddr: 0x100005A90, symSize: 0x24 }
  - { offsetInCU: 0x37D9, offset: 0xF4C4, size: 0x8, addend: 0x0, symName: __ZN11Interpreter16interpretProgramEv, symObjAddr: 0x21C, symBinAddr: 0x100005A08, symSize: 0x88 }
  - { offsetInCU: 0x384D, offset: 0xF538, size: 0x8, addend: 0x0, symName: __ZN11Interpreter12visitVarDeclEP7VarDecl, symObjAddr: 0x1B8, symBinAddr: 0x1000059A4, symSize: 0x64 }
  - { offsetInCU: 0x3886, offset: 0xF571, size: 0x8, addend: 0x0, symName: __ZN11Interpreter12visitLiteralEP7Literal, symObjAddr: 0x154, symBinAddr: 0x100005940, symSize: 0x64 }
  - { offsetInCU: 0x38BF, offset: 0xF5AA, size: 0x8, addend: 0x0, symName: __ZN11Interpreter14visitUnaryExprEP9UnaryExpr, symObjAddr: 0xF0, symBinAddr: 0x1000058DC, symSize: 0x64 }
  - { offsetInCU: 0x38F8, offset: 0xF5E3, size: 0x8, addend: 0x0, symName: __ZN11Interpreter15visitBinaryExprEP10BinaryExpr, symObjAddr: 0x8C, symBinAddr: 0x100005878, symSize: 0x64 }
  - { offsetInCU: 0x6B06, offset: 0x1611A, size: 0x8, addend: 0x0, symName: __Z7isalnumi, symObjAddr: 0x108, symBinAddr: 0x100005D18, symSize: 0x20 }
  - { offsetInCU: 0x6B39, offset: 0x1614D, size: 0x8, addend: 0x0, symName: __Z7isalphai, symObjAddr: 0x128, symBinAddr: 0x100005D38, symSize: 0x20 }
  - { offsetInCU: 0x6B82, offset: 0x16196, size: 0x8, addend: 0x0, symName: __Z7isdigiti, symObjAddr: 0x148, symBinAddr: 0x100005D58, symSize: 0x20 }
  - { offsetInCU: 0x7353, offset: 0x16967, size: 0x8, addend: 0x0, symName: __ZStL8__ioinit, symObjAddr: 0x36AB0, symBinAddr: 0x100028002, symSize: 0x0 }
  - { offsetInCU: 0x7868, offset: 0x16E7C, size: 0x8, addend: 0x0, symName: __GLOBAL__sub_I_Lexer.cpp, symObjAddr: 0x4150, symBinAddr: 0x100009658, symSize: 0x1C }
  - { offsetInCU: 0x7890, offset: 0x16EA4, size: 0x8, addend: 0x0, symName: __Z41__static_initialization_and_destruction_0ii, symObjAddr: 0x40F0, symBinAddr: 0x1000095F8, symSize: 0x60 }
  - { offsetInCU: 0x789F, offset: 0x16EB3, size: 0x8, addend: 0x0, symName: __ZSt10_ConstructI5TokenJS0_EEvPT_DpOT0_, symObjAddr: 0x3C58, symBinAddr: 0x100009580, symSize: 0x78 }
  - { offsetInCU: 0x78EE, offset: 0x16F02, size: 0x8, addend: 0x0, symName: __ZNSt22_Optional_payload_baseI5TokenE12_M_constructIJS0_EEEvDpOT_, symObjAddr: 0x3C08, symBinAddr: 0x100009530, symSize: 0x50 }
  - { offsetInCU: 0x7935, offset: 0x16F49, size: 0x8, addend: 0x0, symName: __ZSt4moveIR5TokenEONSt16remove_referenceIT_E4typeEOS3_, symObjAddr: 0x3BF4, symBinAddr: 0x10000951C, symSize: 0x14 }
  - { offsetInCU: 0x7966, offset: 0x16F7A, size: 0x8, addend: 0x0, symName: __ZSt16__do_uninit_copyIPKSt8optionalI5TokenEPS2_ET0_T_S7_S6_, symObjAddr: 0x3B4C, symBinAddr: 0x100009488, symSize: 0x94 }
  - { offsetInCU: 0x79D2, offset: 0x16FE6, size: 0x8, addend: 0x0, symName: __ZNKSt15__new_allocatorISt8optionalI5TokenEE8max_sizeEv, symObjAddr: 0x3B30, symBinAddr: 0x10000946C, symSize: 0x1C }
  - { offsetInCU: 0x79F8, offset: 0x1700C, size: 0x8, addend: 0x0, symName: __ZSt10_ConstructI5TokenJRKS0_EEvPT_DpOT0_, symObjAddr: 0x3AB8, symBinAddr: 0x1000093F4, symSize: 0x78 }
  - { offsetInCU: 0x7A49, offset: 0x1705D, size: 0x8, addend: 0x0, symName: __ZSt7forwardIRK5TokenEOT_RNSt16remove_referenceIS3_E4typeE, symObjAddr: 0x3AA4, symBinAddr: 0x1000093E0, symSize: 0x14 }
  - { offsetInCU: 0x7A7A, offset: 0x1708E, size: 0x8, addend: 0x0, symName: __ZSt11__addressofI5TokenEPT_RS1_, symObjAddr: 0x3A90, symBinAddr: 0x1000093CC, symSize: 0x14 }
  - { offsetInCU: 0x7AAF, offset: 0x170C3, size: 0x8, addend: 0x0, symName: __ZNK9__gnu_cxx17__normal_iteratorIPKSt8optionalI5TokenESt6vectorIS3_SaIS3_EEE4baseEv, symObjAddr: 0x3A7C, symBinAddr: 0x1000093B8, symSize: 0x14 }
  - { offsetInCU: 0x7B37, offset: 0x1714B, size: 0x8, addend: 0x0, symName: __ZNSt22_Optional_payload_baseI5TokenEC2EbOS1_, symObjAddr: 0x3A00, symBinAddr: 0x10000933C, symSize: 0x7C }
  - { offsetInCU: 0x7B47, offset: 0x1715B, size: 0x8, addend: 0x0, symName: __ZSt4moveIRSt17_Optional_payloadI5TokenLb0ELb0ELb0EEEONSt16remove_referenceIT_E4typeEOS5_, symObjAddr: 0x39EC, symBinAddr: 0x100009328, symSize: 0x14 }
  - { offsetInCU: 0x7B78, offset: 0x1718C, size: 0x8, addend: 0x0, symName: __ZNSt20__uninitialized_copyILb0EE13__uninit_copyIPKSt8optionalI5TokenEPS4_EET0_T_S9_S8_, symObjAddr: 0x39C0, symBinAddr: 0x1000092FC, symSize: 0x2C }
  - { offsetInCU: 0x7BD4, offset: 0x171E8, size: 0x8, addend: 0x0, symName: __ZNKSt15__new_allocatorISt8optionalI5TokenEE11_M_max_sizeEv, symObjAddr: 0x39AC, symBinAddr: 0x1000092E8, symSize: 0x14 }
  - { offsetInCU: 0x7C00, offset: 0x17214, size: 0x8, addend: 0x0, symName: __ZSt3minImERKT_S2_S2_, symObjAddr: 0x3974, symBinAddr: 0x1000092B0, symSize: 0x38 }
  - { offsetInCU: 0x7C40, offset: 0x17254, size: 0x8, addend: 0x0, symName: __ZNSt16allocator_traitsISaISt8optionalI5TokenEEE8max_sizeERKS3_, symObjAddr: 0x3958, symBinAddr: 0x100009294, symSize: 0x1C }
  - { offsetInCU: 0x7C6E, offset: 0x17282, size: 0x8, addend: 0x0, symName: __ZNSt22_Optional_payload_baseI5TokenE12_M_constructIJRKS0_EEEvDpOT_, symObjAddr: 0x3908, symBinAddr: 0x100009244, symSize: 0x50 }
  - { offsetInCU: 0x7CB3, offset: 0x172C7, size: 0x8, addend: 0x0, symName: __ZNKSt22_Optional_payload_baseI5TokenE6_M_getEv, symObjAddr: 0x38F4, symBinAddr: 0x100009230, symSize: 0x14 }
  - { offsetInCU: 0x7CD9, offset: 0x172ED, size: 0x8, addend: 0x0, symName: __ZSt10_ConstructISt8optionalI5TokenEJRKS2_EEvPT_DpOT0_, symObjAddr: 0x387C, symBinAddr: 0x1000091B8, symSize: 0x78 }
  - { offsetInCU: 0x7D28, offset: 0x1733C, size: 0x8, addend: 0x0, symName: __ZNK9__gnu_cxx17__normal_iteratorIPKSt8optionalI5TokenESt6vectorIS3_SaIS3_EEEdeEv, symObjAddr: 0x3864, symBinAddr: 0x1000091A0, symSize: 0x18 }
  - { offsetInCU: 0x7D52, offset: 0x17366, size: 0x8, addend: 0x0, symName: __ZN9__gnu_cxx17__normal_iteratorIPKSt8optionalI5TokenESt6vectorIS3_SaIS3_EEEppEv, symObjAddr: 0x383C, symBinAddr: 0x100009178, symSize: 0x28 }
  - { offsetInCU: 0x7D7E, offset: 0x17392, size: 0x8, addend: 0x0, symName: __ZN9__gnu_cxxneIPKSt8optionalI5TokenESt6vectorIS3_SaIS3_EEEEbRKNS_17__normal_iteratorIT_T0_EESE_, symObjAddr: 0x37F8, symBinAddr: 0x100009134, symSize: 0x44 }
  - { offsetInCU: 0x7E20, offset: 0x17434, size: 0x8, addend: 0x0, symName: __ZNSt14_Optional_baseI5TokenLb0ELb0EEC2EOS1_, symObjAddr: 0x37B0, symBinAddr: 0x1000090EC, symSize: 0x48 }
  - { offsetInCU: 0x7E9F, offset: 0x174B3, size: 0x8, addend: 0x0, symName: __ZNSt17_Optional_payloadI5TokenLb0ELb0ELb0EECI1St22_Optional_payload_baseIS0_EEbOS3_, symObjAddr: 0x377C, symBinAddr: 0x1000090B8, symSize: 0x34 }
  - { offsetInCU: 0x7EFF, offset: 0x17513, size: 0x8, addend: 0x0, symName: __ZNSt17_Optional_payloadI5TokenLb1ELb0ELb0EECI2St22_Optional_payload_baseIS0_EEbOS3_, symObjAddr: 0x3748, symBinAddr: 0x100009084, symSize: 0x34 }
  - { offsetInCU: 0x7EE2, offset: 0x174F6, size: 0x8, addend: 0x0, symName: __ZSt18uninitialized_copyIPKSt8optionalI5TokenEPS2_ET0_T_S7_S6_, symObjAddr: 0x3714, symBinAddr: 0x100009050, symSize: 0x34 }
  - { offsetInCU: 0x7F5E, offset: 0x17572, size: 0x8, addend: 0x0, symName: __ZNSt15__new_allocatorISt8optionalI5TokenEE8allocateEmPKv, symObjAddr: 0x369C, symBinAddr: 0x100008FD8, symSize: 0x78 }
  - { offsetInCU: 0x7FAC, offset: 0x175C0, size: 0x8, addend: 0x0, symName: __ZNSt6vectorISt8optionalI5TokenESaIS2_EE11_S_max_sizeERKS3_, symObjAddr: 0x3664, symBinAddr: 0x100008FA0, symSize: 0x38 }
  - { offsetInCU: 0x805B, offset: 0x1766F, size: 0x8, addend: 0x0, symName: __ZNSt22_Optional_payload_baseI5TokenEC2EbRKS1_, symObjAddr: 0x35EC, symBinAddr: 0x100008F28, symSize: 0x78 }
  - { offsetInCU: 0x8064, offset: 0x17678, size: 0x8, addend: 0x0, symName: __ZSt16__do_uninit_copyIN9__gnu_cxx17__normal_iteratorIPKSt8optionalI5TokenESt6vectorIS4_SaIS4_EEEEPS4_ET0_T_SD_SC_, symObjAddr: 0x3548, symBinAddr: 0x100008E84, symSize: 0xA4 }
  - { offsetInCU: 0x811F, offset: 0x17733, size: 0x8, addend: 0x0, symName: __ZNSt15__new_allocatorISt8optionalI5TokenEEC2ERKS3_, symObjAddr: 0x3530, symBinAddr: 0x100008E6C, symSize: 0x18 }
  - { offsetInCU: 0x811A, offset: 0x1772E, size: 0x8, addend: 0x0, symName: __ZSt8_DestroyISt8optionalI5TokenEEvPT_, symObjAddr: 0x3510, symBinAddr: 0x100008E4C, symSize: 0x20 }
  - { offsetInCU: 0x814B, offset: 0x1775F, size: 0x8, addend: 0x0, symName: __ZSt11__addressofISt8optionalI5TokenEEPT_RS3_, symObjAddr: 0x34FC, symBinAddr: 0x100008E38, symSize: 0x14 }
  - { offsetInCU: 0x8207, offset: 0x1781B, size: 0x8, addend: 0x0, symName: __ZNSt22_Optional_payload_baseI5TokenE8_StorageIS0_Lb0EEC1IJRS0_EEESt10in_place_tDpOT_, symObjAddr: 0x34BC, symBinAddr: 0x100008DF8, symSize: 0x40 }
  - { offsetInCU: 0x81FE, offset: 0x17812, size: 0x8, addend: 0x0, symName: __ZNK9__gnu_cxx17__normal_iteratorIPSt8optionalI5TokenESt6vectorIS3_SaIS3_EEEdeEv, symObjAddr: 0x34A4, symBinAddr: 0x100008DE0, symSize: 0x18 }
  - { offsetInCU: 0x8228, offset: 0x1783C, size: 0x8, addend: 0x0, symName: __ZNK9__gnu_cxx17__normal_iteratorIPSt8optionalI5TokenESt6vectorIS3_SaIS3_EEEmiEl, symObjAddr: 0x3460, symBinAddr: 0x100008D9C, symSize: 0x44 }
  - { offsetInCU: 0x8269, offset: 0x1787D, size: 0x8, addend: 0x0, symName: __ZNSt15__new_allocatorISt8optionalI5TokenEE9constructIS2_JS2_EEEvPT_DpOT0_, symObjAddr: 0x33E4, symBinAddr: 0x100008D20, symSize: 0x7C }
  - { offsetInCU: 0x8302, offset: 0x17916, size: 0x8, addend: 0x0, symName: __ZNSt8optionalI5TokenEC1EOS1_, symObjAddr: 0x33BC, symBinAddr: 0x100008CF8, symSize: 0x28 }
  - { offsetInCU: 0x839D, offset: 0x179B1, size: 0x8, addend: 0x0, symName: __ZNSt22_Optional_payload_baseI5TokenE8_StorageIS0_Lb0EEC1IJS0_EEESt10in_place_tDpOT_, symObjAddr: 0x337C, symBinAddr: 0x100008CB8, symSize: 0x40 }
  - { offsetInCU: 0x8395, offset: 0x179A9, size: 0x8, addend: 0x0, symName: __ZNSt15__new_allocatorISt8optionalI5TokenEE7destroyIS2_EEvPT_, symObjAddr: 0x3358, symBinAddr: 0x100008C94, symSize: 0x24 }
  - { offsetInCU: 0x83D3, offset: 0x179E7, size: 0x8, addend: 0x0, symName: __ZSt22__uninitialized_copy_aIPKSt8optionalI5TokenEPS2_S2_ET0_T_S7_S6_RSaIT1_E, symObjAddr: 0x3328, symBinAddr: 0x100008C64, symSize: 0x30 }
  - { offsetInCU: 0x8443, offset: 0x17A57, size: 0x8, addend: 0x0, symName: __ZSt32__make_move_if_noexcept_iteratorISt8optionalI5TokenEPKS2_ET0_PT_, symObjAddr: 0x3314, symBinAddr: 0x100008C50, symSize: 0x14 }
  - { offsetInCU: 0x847F, offset: 0x17A93, size: 0x8, addend: 0x0, symName: __ZNSt16allocator_traitsISaISt8optionalI5TokenEEE8allocateERS3_m, symObjAddr: 0x32EC, symBinAddr: 0x100008C28, symSize: 0x28 }
  - { offsetInCU: 0x84BA, offset: 0x17ACE, size: 0x8, addend: 0x0, symName: __ZSt3maxImERKT_S2_S2_, symObjAddr: 0x32B4, symBinAddr: 0x100008BF0, symSize: 0x38 }
  - { offsetInCU: 0x84FE, offset: 0x17B12, size: 0x8, addend: 0x0, symName: __ZNKSt6vectorISt8optionalI5TokenESaIS2_EE8max_sizeEv, symObjAddr: 0x3294, symBinAddr: 0x100008BD0, symSize: 0x20 }
  - { offsetInCU: 0x857A, offset: 0x17B8E, size: 0x8, addend: 0x0, symName: __ZNSt14_Optional_baseI5TokenLb0ELb0EEC2ERKS1_, symObjAddr: 0x3258, symBinAddr: 0x100008B94, symSize: 0x3C }
  - { offsetInCU: 0x85F9, offset: 0x17C0D, size: 0x8, addend: 0x0, symName: __ZNSt17_Optional_payloadI5TokenLb0ELb0ELb0EECI1St22_Optional_payload_baseIS0_EEbRKS3_, symObjAddr: 0x3224, symBinAddr: 0x100008B60, symSize: 0x34 }
  - { offsetInCU: 0x8659, offset: 0x17C6D, size: 0x8, addend: 0x0, symName: __ZNSt17_Optional_payloadI5TokenLb1ELb0ELb0EECI2St22_Optional_payload_baseIS0_EEbRKS3_, symObjAddr: 0x31F0, symBinAddr: 0x100008B2C, symSize: 0x34 }
  - { offsetInCU: 0x863B, offset: 0x17C4F, size: 0x8, addend: 0x0, symName: __ZNSt20__uninitialized_copyILb0EE13__uninit_copyIN9__gnu_cxx17__normal_iteratorIPKSt8optionalI5TokenESt6vectorIS6_SaIS6_EEEEPS6_EET0_T_SF_SE_, symObjAddr: 0x31C4, symBinAddr: 0x100008B00, symSize: 0x2C }
  - { offsetInCU: 0x86DD, offset: 0x17CF1, size: 0x8, addend: 0x0, symName: __ZNSaISt8optionalI5TokenEEC1ERKS2_, symObjAddr: 0x319C, symBinAddr: 0x100008AD8, symSize: 0x28 }
  - { offsetInCU: 0x8710, offset: 0x17D24, size: 0x8, addend: 0x0, symName: __ZNSaISt8optionalI5TokenEEC2ERKS2_, symObjAddr: 0x3174, symBinAddr: 0x100008AB0, symSize: 0x28 }
  - { offsetInCU: 0x871C, offset: 0x17D30, size: 0x8, addend: 0x0, symName: __ZNSt12_Destroy_auxILb0EE9__destroyIPSt8optionalI5TokenEEEvT_S6_, symObjAddr: 0x3128, symBinAddr: 0x100008A64, symSize: 0x4C }
  - { offsetInCU: 0x8760, offset: 0x17D74, size: 0x8, addend: 0x0, symName: __ZNSt15__new_allocatorISt8optionalI5TokenEE10deallocateEPS2_m, symObjAddr: 0x30F8, symBinAddr: 0x100008A34, symSize: 0x30 }
  - { offsetInCU: 0x87A4, offset: 0x17DB8, size: 0x8, addend: 0x0, symName: __ZSt10__distanceIPKcENSt15iterator_traitsIT_E15difference_typeES3_S3_St26random_access_iterator_tag, symObjAddr: 0x30D4, symBinAddr: 0x100008A10, symSize: 0x24 }
  - { offsetInCU: 0x87ED, offset: 0x17E01, size: 0x8, addend: 0x0, symName: __ZSt19__iterator_categoryIPKcENSt15iterator_traitsIT_E17iterator_categoryERKS3_, symObjAddr: 0x30C0, symBinAddr: 0x1000089FC, symSize: 0x14 }
  - { offsetInCU: 0x8899, offset: 0x17EAD, size: 0x8, addend: 0x0, symName: __ZNSt22_Optional_payload_baseI5TokenEC2IJRS0_EEESt10in_place_tDpOT_, symObjAddr: 0x3070, symBinAddr: 0x1000089AC, symSize: 0x50 }
  - { offsetInCU: 0x88A4, offset: 0x17EB8, size: 0x8, addend: 0x0, symName: __ZSt4moveIRcEONSt16remove_referenceIT_E4typeEOS2_, symObjAddr: 0x305C, symBinAddr: 0x100008998, symSize: 0x14 }
  - { offsetInCU: 0x88D9, offset: 0x17EED, size: 0x8, addend: 0x0, symName: __ZNSt6vectorISt8optionalI5TokenESaIS2_EE4backEv, symObjAddr: 0x3024, symBinAddr: 0x100008960, symSize: 0x38 }
  - { offsetInCU: 0x8903, offset: 0x17F17, size: 0x8, addend: 0x0, symName: __ZNSt6vectorISt8optionalI5TokenESaIS2_EE17_M_realloc_insertIJS2_EEEvN9__gnu_cxx17__normal_iteratorIPS2_S4_EEDpOT_, symObjAddr: 0x2E24, symBinAddr: 0x100008760, symSize: 0x200 }
  - { offsetInCU: 0x89BE, offset: 0x17FD2, size: 0x8, addend: 0x0, symName: __ZNSt16allocator_traitsISaISt8optionalI5TokenEEE9constructIS2_JS2_EEEvRS3_PT_DpOT0_, symObjAddr: 0x2DEC, symBinAddr: 0x100008728, symSize: 0x38 }
  - { offsetInCU: 0x8A23, offset: 0x18037, size: 0x8, addend: 0x0, symName: __ZSt7forwardISt8optionalI5TokenEEOT_RNSt16remove_referenceIS3_E4typeE, symObjAddr: 0x2DD8, symBinAddr: 0x100008714, symSize: 0x14 }
  - { offsetInCU: 0x8AD4, offset: 0x180E8, size: 0x8, addend: 0x0, symName: __ZNSt22_Optional_payload_baseI5TokenEC2IJS0_EEESt10in_place_tDpOT_, symObjAddr: 0x2D88, symBinAddr: 0x1000086C4, symSize: 0x50 }
  - { offsetInCU: 0x8AE6, offset: 0x180FA, size: 0x8, addend: 0x0, symName: __ZSt4moveIRPKcEONSt16remove_referenceIT_E4typeEOS4_, symObjAddr: 0x2D74, symBinAddr: 0x1000086B0, symSize: 0x14 }
  - { offsetInCU: 0x8B17, offset: 0x1812B, size: 0x8, addend: 0x0, symName: __ZNSt16allocator_traitsISaISt8optionalI5TokenEEE7destroyIS2_EEvRS3_PT_, symObjAddr: 0x2D4C, symBinAddr: 0x100008688, symSize: 0x28 }
  - { offsetInCU: 0x8B5B, offset: 0x1816F, size: 0x8, addend: 0x0, symName: __ZSt34__uninitialized_move_if_noexcept_aIPSt8optionalI5TokenES3_SaIS2_EET0_T_S6_S5_RT1_, symObjAddr: 0x2CFC, symBinAddr: 0x100008638, symSize: 0x50 }
  - { offsetInCU: 0x8BD7, offset: 0x181EB, size: 0x8, addend: 0x0, symName: __ZNK9__gnu_cxx17__normal_iteratorIPSt8optionalI5TokenESt6vectorIS3_SaIS3_EEE4baseEv, symObjAddr: 0x2CE8, symBinAddr: 0x100008624, symSize: 0x14 }
  - { offsetInCU: 0x8C01, offset: 0x18215, size: 0x8, addend: 0x0, symName: __ZNSt12_Vector_baseISt8optionalI5TokenESaIS2_EE11_M_allocateEm, symObjAddr: 0x2CB0, symBinAddr: 0x1000085EC, symSize: 0x38 }
  - { offsetInCU: 0x8C3E, offset: 0x18252, size: 0x8, addend: 0x0, symName: __ZN9__gnu_cxxmiIPSt8optionalI5TokenESt6vectorIS3_SaIS3_EEEENS_17__normal_iteratorIT_T0_E15difference_typeERKSB_SE_, symObjAddr: 0x2C70, symBinAddr: 0x1000085AC, symSize: 0x40 }
  - { offsetInCU: 0x8C8F, offset: 0x182A3, size: 0x8, addend: 0x0, symName: __ZNSt6vectorISt8optionalI5TokenESaIS2_EE5beginEv, symObjAddr: 0x2C4C, symBinAddr: 0x100008588, symSize: 0x24 }
  - { offsetInCU: 0x8CB9, offset: 0x182CD, size: 0x8, addend: 0x0, symName: __ZNKSt6vectorISt8optionalI5TokenESaIS2_EE12_M_check_lenEmPKc, symObjAddr: 0x2B80, symBinAddr: 0x1000084BC, symSize: 0xCC }
  - { offsetInCU: 0x8D8E, offset: 0x183A2, size: 0x8, addend: 0x0, symName: __ZN9__gnu_cxx17__normal_iteratorIPSt8optionalI5TokenESt6vectorIS3_SaIS3_EEEC1ERKS4_, symObjAddr: 0x2B58, symBinAddr: 0x100008494, symSize: 0x28 }
  - { offsetInCU: 0x8D6D, offset: 0x18381, size: 0x8, addend: 0x0, symName: __ZNSt15__new_allocatorISt8optionalI5TokenEE9constructIS2_JRKS2_EEEvPT_DpOT0_, symObjAddr: 0x2ADC, symBinAddr: 0x100008418, symSize: 0x7C }
  - { offsetInCU: 0x8E07, offset: 0x1841B, size: 0x8, addend: 0x0, symName: __ZNSt8optionalI5TokenEC1ERKS1_, symObjAddr: 0x2AB4, symBinAddr: 0x1000083F0, symSize: 0x28 }
  - { offsetInCU: 0x8E1D, offset: 0x18431, size: 0x8, addend: 0x0, symName: __ZSt7forwardIRKSt8optionalI5TokenEEOT_RNSt16remove_referenceIS5_E4typeE, symObjAddr: 0x2AA0, symBinAddr: 0x1000083DC, symSize: 0x14 }
  - { offsetInCU: 0x8E52, offset: 0x18466, size: 0x8, addend: 0x0, symName: __ZNSt22_Optional_payload_baseI5TokenE10_M_destroyEv, symObjAddr: 0x2A60, symBinAddr: 0x1000083B4, symSize: 0x28 }
  - { offsetInCU: 0x8E78, offset: 0x1848C, size: 0x8, addend: 0x0, symName: __ZSt18uninitialized_copyIN9__gnu_cxx17__normal_iteratorIPKSt8optionalI5TokenESt6vectorIS4_SaIS4_EEEEPS4_ET0_T_SD_SC_, symObjAddr: 0x2A2C, symBinAddr: 0x100008380, symSize: 0x34 }
  - { offsetInCU: 0x8F6D, offset: 0x18581, size: 0x8, addend: 0x0, symName: __ZN9__gnu_cxx17__normal_iteratorIPKSt8optionalI5TokenESt6vectorIS3_SaIS3_EEEC1ERKS5_, symObjAddr: 0x2A04, symBinAddr: 0x100008358, symSize: 0x28 }
  - { offsetInCU: 0x8F4B, offset: 0x1855F, size: 0x8, addend: 0x0, symName: __ZNSt12_Vector_baseISt8optionalI5TokenESaIS2_EE17_M_create_storageEm, symObjAddr: 0x29A4, symBinAddr: 0x1000082F8, symSize: 0x60 }
  - { offsetInCU: 0x8FEF, offset: 0x18603, size: 0x8, addend: 0x0, symName: __ZNSt12_Vector_baseISt8optionalI5TokenESaIS2_EE12_Vector_implC1ERKS3_, symObjAddr: 0x2974, symBinAddr: 0x1000082C8, symSize: 0x30 }
  - { offsetInCU: 0x8FD8, offset: 0x185EC, size: 0x8, addend: 0x0, symName: __ZNSt16allocator_traitsISaISt8optionalI5TokenEEE37select_on_container_copy_constructionERKS3_, symObjAddr: 0x2944, symBinAddr: 0x100008298, symSize: 0x30 }
  - { offsetInCU: 0x9002, offset: 0x18616, size: 0x8, addend: 0x0, symName: __ZSt8_DestroyIPSt8optionalI5TokenEEvT_S4_, symObjAddr: 0x291C, symBinAddr: 0x100008270, symSize: 0x28 }
  - { offsetInCU: 0x9042, offset: 0x18656, size: 0x8, addend: 0x0, symName: __ZNSt16allocator_traitsISaISt8optionalI5TokenEEE10deallocateERS3_PS2_m, symObjAddr: 0x28EC, symBinAddr: 0x100008240, symSize: 0x30 }
  - { offsetInCU: 0x90D8, offset: 0x186EC, size: 0x8, addend: 0x0, symName: __ZNSt15__new_allocatorISt8optionalI5TokenEEC2Ev, symObjAddr: 0x28D8, symBinAddr: 0x10000822C, symSize: 0x14 }
  - { offsetInCU: 0x90CE, offset: 0x186E2, size: 0x8, addend: 0x0, symName: __ZSt8distanceIPKcENSt15iterator_traitsIT_E15difference_typeES3_S3_, symObjAddr: 0x289C, symBinAddr: 0x1000081F0, symSize: 0x3C }
  - { offsetInCU: 0x918C, offset: 0x187A0, size: 0x8, addend: 0x0, symName: __ZNSt14_Optional_baseI5TokenLb0ELb0EEC2IJRS0_ELb0EEESt10in_place_tDpOT_, symObjAddr: 0x2858, symBinAddr: 0x1000081AC, symSize: 0x44 }
  - { offsetInCU: 0x9233, offset: 0x18847, size: 0x8, addend: 0x0, symName: __ZNSt17_Optional_payloadI5TokenLb0ELb0ELb0EECI1St22_Optional_payload_baseIS0_EIJRS0_EEESt10in_place_tDpOT_, symObjAddr: 0x2828, symBinAddr: 0x10000817C, symSize: 0x30 }
  - { offsetInCU: 0x92B7, offset: 0x188CB, size: 0x8, addend: 0x0, symName: __ZNSt17_Optional_payloadI5TokenLb1ELb0ELb0EECI2St22_Optional_payload_baseIS0_EIJRS0_EEESt10in_place_tDpOT_, symObjAddr: 0x27F8, symBinAddr: 0x10000814C, symSize: 0x30 }
  - { offsetInCU: 0x929C, offset: 0x188B0, size: 0x8, addend: 0x0, symName: __ZSt7forwardIR5TokenEOT_RNSt16remove_referenceIS2_E4typeE, symObjAddr: 0x27E4, symBinAddr: 0x100008138, symSize: 0x14 }
  - { offsetInCU: 0x92CD, offset: 0x188E1, size: 0x8, addend: 0x0, symName: __ZNSt3any17_Manager_internalIcE9_S_createIRcEEvRNS_8_StorageEOT_, symObjAddr: 0x2794, symBinAddr: 0x1000080E8, symSize: 0x50 }
  - { offsetInCU: 0x9328, offset: 0x1893C, size: 0x8, addend: 0x0, symName: __ZSt7forwardIRcEOT_RNSt16remove_referenceIS1_E4typeE, symObjAddr: 0x2780, symBinAddr: 0x1000080D4, symSize: 0x14 }
  - { offsetInCU: 0x9359, offset: 0x1896D, size: 0x8, addend: 0x0, symName: __ZNSt3any17_Manager_internalIcE9_S_manageENS_3_OpEPKS_PNS_4_ArgE, symObjAddr: 0x2650, symBinAddr: 0x100007FA4, symSize: 0x130 }
  - { offsetInCU: 0x93BC, offset: 0x189D0, size: 0x8, addend: 0x0, symName: __ZNSt3any17_Manager_internalIPKcE9_S_createIRA2_S1_EEvRNS_8_StorageEOT_, symObjAddr: 0x2604, symBinAddr: 0x100007F58, symSize: 0x4C }
  - { offsetInCU: 0x9417, offset: 0x18A2B, size: 0x8, addend: 0x0, symName: __ZSt7forwardIRA2_KcEOT_RNSt16remove_referenceIS3_E4typeE, symObjAddr: 0x25F0, symBinAddr: 0x100007F44, symSize: 0x14 }
  - { offsetInCU: 0x949E, offset: 0x18AB2, size: 0x8, addend: 0x0, symName: __ZNSt22_Optional_payload_baseI5TokenE8_StorageIS0_Lb0EEC1Ev, symObjAddr: 0x25DC, symBinAddr: 0x100007F30, symSize: 0x14 }
  - { offsetInCU: 0x9488, offset: 0x18A9C, size: 0x8, addend: 0x0, symName: __ZNSt3any17_Manager_externalINSt7__cxx1112basic_stringIcSt11char_traitsIcESaIcEEEE9_S_createIRS6_EEvRNS_8_StorageEOT_, symObjAddr: 0x2564, symBinAddr: 0x100007EB8, symSize: 0x78 }
  - { offsetInCU: 0x94D2, offset: 0x18AE6, size: 0x8, addend: 0x0, symName: __ZSt7forwardIRNSt7__cxx1112basic_stringIcSt11char_traitsIcESaIcEEEEOT_RNSt16remove_referenceIS7_E4typeE, symObjAddr: 0x2550, symBinAddr: 0x100007EA4, symSize: 0x14 }
  - { offsetInCU: 0x9507, offset: 0x18B1B, size: 0x8, addend: 0x0, symName: __ZNSt6vectorISt8optionalI5TokenESaIS2_EE12emplace_backIJS2_EEERS2_DpOT_, symObjAddr: 0x2348, symBinAddr: 0x100007E04, symSize: 0xA0 }
  - { offsetInCU: 0x954D, offset: 0x18B61, size: 0x8, addend: 0x0, symName: __ZSt4moveIRSt8optionalI5TokenEEONSt16remove_referenceIT_E4typeEOS5_, symObjAddr: 0x2334, symBinAddr: 0x100007DF0, symSize: 0x14 }
  - { offsetInCU: 0x95FB, offset: 0x18C0F, size: 0x8, addend: 0x0, symName: __ZNSt14_Optional_baseI5TokenLb0ELb0EEC2IJS0_ELb0EEESt10in_place_tDpOT_, symObjAddr: 0x22F0, symBinAddr: 0x100007DAC, symSize: 0x44 }
  - { offsetInCU: 0x96A2, offset: 0x18CB6, size: 0x8, addend: 0x0, symName: __ZNSt17_Optional_payloadI5TokenLb0ELb0ELb0EECI1St22_Optional_payload_baseIS0_EIJS0_EEESt10in_place_tDpOT_, symObjAddr: 0x22C0, symBinAddr: 0x100007D7C, symSize: 0x30 }
  - { offsetInCU: 0x9726, offset: 0x18D3A, size: 0x8, addend: 0x0, symName: __ZNSt17_Optional_payloadI5TokenLb1ELb0ELb0EECI2St22_Optional_payload_baseIS0_EIJS0_EEESt10in_place_tDpOT_, symObjAddr: 0x2290, symBinAddr: 0x100007D4C, symSize: 0x30 }
  - { offsetInCU: 0x970C, offset: 0x18D20, size: 0x8, addend: 0x0, symName: __ZSt7forwardI5TokenEOT_RNSt16remove_referenceIS1_E4typeE, symObjAddr: 0x227C, symBinAddr: 0x100007D38, symSize: 0x14 }
  - { offsetInCU: 0x9743, offset: 0x18D57, size: 0x8, addend: 0x0, symName: __ZNSt3any17_Manager_internalIPKcE9_S_createIRA1_S1_EEvRNS_8_StorageEOT_, symObjAddr: 0x2230, symBinAddr: 0x100007CEC, symSize: 0x4C }
  - { offsetInCU: 0x979E, offset: 0x18DB2, size: 0x8, addend: 0x0, symName: __ZSt7forwardIRA1_KcEOT_RNSt16remove_referenceIS3_E4typeE, symObjAddr: 0x221C, symBinAddr: 0x100007CD8, symSize: 0x14 }
  - { offsetInCU: 0x97CF, offset: 0x18DE3, size: 0x8, addend: 0x0, symName: __ZNSt3any17_Manager_internalIPKcE9_S_manageENS_3_OpEPKS_PNS_4_ArgE, symObjAddr: 0x20EC, symBinAddr: 0x100007BA8, symSize: 0x130 }
  - { offsetInCU: 0x9830, offset: 0x18E44, size: 0x8, addend: 0x0, symName: __ZNSt6vectorISt8optionalI5TokenESaIS2_EE17_M_realloc_insertIJRKS2_EEEvN9__gnu_cxx17__normal_iteratorIPS2_S4_EEDpOT_, symObjAddr: 0x1EEC, symBinAddr: 0x1000079A8, symSize: 0x200 }
  - { offsetInCU: 0x98EF, offset: 0x18F03, size: 0x8, addend: 0x0, symName: __ZNSt6vectorISt8optionalI5TokenESaIS2_EE3endEv, symObjAddr: 0x1EC4, symBinAddr: 0x100007980, symSize: 0x28 }
  - { offsetInCU: 0x9915, offset: 0x18F29, size: 0x8, addend: 0x0, symName: __ZNSt16allocator_traitsISaISt8optionalI5TokenEEE9constructIS2_JRKS2_EEEvRS3_PT_DpOT0_, symObjAddr: 0x1E8C, symBinAddr: 0x100007948, symSize: 0x38 }
  - { offsetInCU: 0x9978, offset: 0x18F8C, size: 0x8, addend: 0x0, symName: __ZNKSt8optionalI5TokenEcvbEv, symObjAddr: 0x1E70, symBinAddr: 0x10000792C, symSize: 0x1C }
  - { offsetInCU: 0x99A2, offset: 0x18FB6, size: 0x8, addend: 0x0, symName: __ZNSt22_Optional_payload_baseI5TokenE8_M_resetEv, symObjAddr: 0x1E40, symBinAddr: 0x1000078FC, symSize: 0x30 }
  - { offsetInCU: 0x9A28, offset: 0x1903C, size: 0x8, addend: 0x0, symName: __ZNSt22_Optional_payload_baseI5TokenE8_StorageIS0_Lb0EED1Ev, symObjAddr: 0x1E2C, symBinAddr: 0x1000078E8, symSize: 0x14 }
  - { offsetInCU: 0x9A12, offset: 0x19026, size: 0x8, addend: 0x0, symName: __ZSt22__uninitialized_copy_aIN9__gnu_cxx17__normal_iteratorIPKSt8optionalI5TokenESt6vectorIS4_SaIS4_EEEEPS4_S4_ET0_T_SD_SC_RSaIT1_E, symObjAddr: 0x1DFC, symBinAddr: 0x1000078B8, symSize: 0x30 }
  - { offsetInCU: 0x9A86, offset: 0x1909A, size: 0x8, addend: 0x0, symName: __ZNKSt6vectorISt8optionalI5TokenESaIS2_EE3endEv, symObjAddr: 0x1DD4, symBinAddr: 0x100007890, symSize: 0x28 }
  - { offsetInCU: 0x9AB0, offset: 0x190C4, size: 0x8, addend: 0x0, symName: __ZNKSt6vectorISt8optionalI5TokenESaIS2_EE5beginEv, symObjAddr: 0x1DB0, symBinAddr: 0x10000786C, symSize: 0x24 }
  - { offsetInCU: 0x9B45, offset: 0x19159, size: 0x8, addend: 0x0, symName: __ZNSt12_Vector_baseISt8optionalI5TokenESaIS2_EEC2EmRKS3_, symObjAddr: 0x1D5C, symBinAddr: 0x100007818, symSize: 0x54 }
  - { offsetInCU: 0x9B44, offset: 0x19158, size: 0x8, addend: 0x0, symName: __ZN9__gnu_cxx14__alloc_traitsISaISt8optionalI5TokenEES3_E17_S_select_on_copyERKS4_, symObjAddr: 0x1D2C, symBinAddr: 0x1000077E8, symSize: 0x30 }
  - { offsetInCU: 0x9B70, offset: 0x19184, size: 0x8, addend: 0x0, symName: __ZNKSt12_Vector_baseISt8optionalI5TokenESaIS2_EE19_M_get_Tp_allocatorEv, symObjAddr: 0x1D18, symBinAddr: 0x1000077D4, symSize: 0x14 }
  - { offsetInCU: 0x9B9A, offset: 0x191AE, size: 0x8, addend: 0x0, symName: __ZNKSt6vectorISt8optionalI5TokenESaIS2_EE4sizeEv, symObjAddr: 0x1CF0, symBinAddr: 0x1000077AC, symSize: 0x28 }
  - { offsetInCU: 0x9BC0, offset: 0x191D4, size: 0x8, addend: 0x0, symName: __ZSt8_DestroyIPSt8optionalI5TokenES2_EvT_S4_RSaIT0_E, symObjAddr: 0x1CC4, symBinAddr: 0x100007780, symSize: 0x2C }
  - { offsetInCU: 0x9C1A, offset: 0x1922E, size: 0x8, addend: 0x0, symName: __ZNSt12_Vector_baseISt8optionalI5TokenESaIS2_EE19_M_get_Tp_allocatorEv, symObjAddr: 0x1CB0, symBinAddr: 0x10000776C, symSize: 0x14 }
  - { offsetInCU: 0x9C44, offset: 0x19258, size: 0x8, addend: 0x0, symName: __ZNSt12_Vector_baseISt8optionalI5TokenESaIS2_EE13_M_deallocateEPS2_m, symObjAddr: 0x1C74, symBinAddr: 0x100007730, symSize: 0x3C }
  - { offsetInCU: 0x9CE0, offset: 0x192F4, size: 0x8, addend: 0x0, symName: __ZNSt15__new_allocatorISt8optionalI5TokenEED2Ev, symObjAddr: 0x1C60, symBinAddr: 0x10000771C, symSize: 0x14 }
  - { offsetInCU: 0x9D37, offset: 0x1934B, size: 0x8, addend: 0x0, symName: __ZNSt12_Vector_baseISt8optionalI5TokenESaIS2_EE17_Vector_impl_dataC2Ev, symObjAddr: 0x1C34, symBinAddr: 0x1000076F0, symSize: 0x2C }
  - { offsetInCU: 0x9D4F, offset: 0x19363, size: 0x8, addend: 0x0, symName: __ZNSaISt8optionalI5TokenEEC2Ev, symObjAddr: 0x1C14, symBinAddr: 0x1000076D0, symSize: 0x20 }
  - { offsetInCU: 0x9D5A, offset: 0x1936E, size: 0x8, addend: 0x0, symName: __ZNSt7__cxx1112basic_stringIcSt11char_traitsIcESaIcEE12_M_constructIPKcEEvT_S8_St20forward_iterator_tag, symObjAddr: 0x1B54, symBinAddr: 0x100007610, symSize: 0xC0 }
  - { offsetInCU: 0x9ED1, offset: 0x194E5, size: 0x8, addend: 0x0, symName: __ZZNSt7__cxx1112basic_stringIcSt11char_traitsIcESaIcEE12_M_constructIPKcEEvT_S8_St20forward_iterator_tagEN6_GuardC1EPS4_, symObjAddr: 0x1AFC, symBinAddr: 0x1000075B8, symSize: 0x24 }
  - { offsetInCU: 0x9F02, offset: 0x19516, size: 0x8, addend: 0x0, symName: __ZZNSt7__cxx1112basic_stringIcSt11char_traitsIcESaIcEE12_M_constructIPKcEEvT_S8_St20forward_iterator_tagEN6_GuardD1Ev, symObjAddr: 0x1B20, symBinAddr: 0x1000075DC, symSize: 0x34 }
  - { offsetInCU: 0x9EFC, offset: 0x19510, size: 0x8, addend: 0x0, symName: __ZN9__gnu_cxx11char_traitsIcE2eqERKcS3_, symObjAddr: 0x1ACC, symBinAddr: 0x100007588, symSize: 0x30 }
  - { offsetInCU: 0x9F8B, offset: 0x1959F, size: 0x8, addend: 0x0, symName: __ZNSt8optionalI5TokenEC1IRS0_Lb1EEEOT_, symObjAddr: 0x1A8C, symBinAddr: 0x100007548, symSize: 0x40 }
  - { offsetInCU: 0xA011, offset: 0x19625, size: 0x8, addend: 0x0, symName: __ZNSt3anyC1IRccNS_17_Manager_internalIcEELb1EEEOT_, symObjAddr: 0x1A30, symBinAddr: 0x1000074EC, symSize: 0x5C }
  - { offsetInCU: 0xA0A6, offset: 0x196BA, size: 0x8, addend: 0x0, symName: __ZNSt3anyC1IRA2_KcPS1_NS_17_Manager_internalIS4_EELb1EEEOT_, symObjAddr: 0x19D4, symBinAddr: 0x100007490, symSize: 0x5C }
  - { offsetInCU: 0xA0F9, offset: 0x1970D, size: 0x8, addend: 0x0, symName: __ZNSt8optionalI5TokenEC1ESt9nullopt_t, symObjAddr: 0x19B0, symBinAddr: 0x10000746C, symSize: 0x24 }
  - { offsetInCU: 0xA146, offset: 0x1975A, size: 0x8, addend: 0x0, symName: __ZNSt14_Optional_baseI5TokenLb0ELb0EEC2Ev, symObjAddr: 0x1990, symBinAddr: 0x10000744C, symSize: 0x20 }
  - { offsetInCU: 0xA18D, offset: 0x197A1, size: 0x8, addend: 0x0, symName: __ZNSt17_Optional_payloadI5TokenLb0ELb0ELb0EEC1Ev, symObjAddr: 0x1970, symBinAddr: 0x10000742C, symSize: 0x20 }
  - { offsetInCU: 0xA1CD, offset: 0x197E1, size: 0x8, addend: 0x0, symName: __ZNSt17_Optional_payloadI5TokenLb1ELb0ELb0EEC2Ev, symObjAddr: 0x1950, symBinAddr: 0x10000740C, symSize: 0x20 }
  - { offsetInCU: 0xA206, offset: 0x1981A, size: 0x8, addend: 0x0, symName: __ZNSt22_Optional_payload_baseI5TokenEC2Ev, symObjAddr: 0x1928, symBinAddr: 0x1000073E4, symSize: 0x28 }
  - { offsetInCU: 0xA2AE, offset: 0x198C2, size: 0x8, addend: 0x0, symName: __ZNSt3anyC1IRNSt7__cxx1112basic_stringIcSt11char_traitsIcESaIcEEES6_NS_17_Manager_externalIS6_EELb1EEEOT_, symObjAddr: 0x18CC, symBinAddr: 0x100007388, symSize: 0x5C }
  - { offsetInCU: 0xA31B, offset: 0x1992F, size: 0x8, addend: 0x0, symName: __ZNSt7__cxx1112basic_stringIcSt11char_traitsIcESaIcEEC1IS3_EEPKcRKS3_, symObjAddr: 0x1830, symBinAddr: 0x1000072EC, symSize: 0x9C }
  - { offsetInCU: 0xA33E, offset: 0x19952, size: 0x8, addend: 0x0, symName: __ZNSt6vectorISt8optionalI5TokenESaIS2_EE9push_backEOS2_, symObjAddr: 0x1800, symBinAddr: 0x1000072BC, symSize: 0x30 }
  - { offsetInCU: 0xA3CC, offset: 0x199E0, size: 0x8, addend: 0x0, symName: __ZNSt8optionalI5TokenEC1IS0_Lb1EEEOT_, symObjAddr: 0x17C0, symBinAddr: 0x10000727C, symSize: 0x40 }
  - { offsetInCU: 0xA45C, offset: 0x19A70, size: 0x8, addend: 0x0, symName: __ZNSt3anyC1IRA1_KcPS1_NS_17_Manager_internalIS4_EELb1EEEOT_, symObjAddr: 0x1764, symBinAddr: 0x100007220, symSize: 0x5C }
  - { offsetInCU: 0xA46E, offset: 0x19A82, size: 0x8, addend: 0x0, symName: __ZNSt6vectorISt8optionalI5TokenESaIS2_EE9push_backERKS2_, symObjAddr: 0x16E4, symBinAddr: 0x1000071A0, symSize: 0x80 }
  - { offsetInCU: 0xA4A5, offset: 0x19AB9, size: 0x8, addend: 0x0, symName: __ZStneI5TokenEbRKSt8optionalIT_ESt9nullopt_t, symObjAddr: 0x16C4, symBinAddr: 0x100007180, symSize: 0x20 }
  - { offsetInCU: 0xA536, offset: 0x19B4A, size: 0x8, addend: 0x0, symName: __ZNSt17_Optional_payloadI5TokenLb0ELb0ELb0EED1Ev, symObjAddr: 0x169C, symBinAddr: 0x100007158, symSize: 0x28 }
  - { offsetInCU: 0xA580, offset: 0x19B94, size: 0x8, addend: 0x0, symName: __ZNSt17_Optional_payloadI5TokenLb1ELb0ELb0EED2Ev, symObjAddr: 0x167C, symBinAddr: 0x100007138, symSize: 0x20 }
  - { offsetInCU: 0xA5C3, offset: 0x19BD7, size: 0x8, addend: 0x0, symName: __ZNSt22_Optional_payload_baseI5TokenED2Ev, symObjAddr: 0x165C, symBinAddr: 0x100007118, symSize: 0x20 }
  - { offsetInCU: 0xA618, offset: 0x19C2C, size: 0x8, addend: 0x0, symName: __ZNSt6vectorISt8optionalI5TokenESaIS2_EEC1ERKS4_, symObjAddr: 0x1578, symBinAddr: 0x100007034, symSize: 0xE4 }
  - { offsetInCU: 0xA667, offset: 0x19C7B, size: 0x8, addend: 0x0, symName: __ZNSt6vectorISt8optionalI5TokenESaIS2_EED1Ev, symObjAddr: 0x1528, symBinAddr: 0x100006FE4, symSize: 0x50 }
  - { offsetInCU: 0xA6B8, offset: 0x19CCC, size: 0x8, addend: 0x0, symName: __ZNSt12_Vector_baseISt8optionalI5TokenESaIS2_EED2Ev, symObjAddr: 0x14D8, symBinAddr: 0x100006F94, symSize: 0x50 }
  - { offsetInCU: 0xA6ED, offset: 0x19D01, size: 0x8, addend: 0x0, symName: __ZNSaISt8optionalI5TokenEED1Ev, symObjAddr: 0x14B8, symBinAddr: 0x100006F74, symSize: 0x20 }
  - { offsetInCU: 0xA717, offset: 0x19D2B, size: 0x8, addend: 0x0, symName: __ZNSaISt8optionalI5TokenEED2Ev, symObjAddr: 0x1498, symBinAddr: 0x100006F54, symSize: 0x20 }
  - { offsetInCU: 0xA77A, offset: 0x19D8E, size: 0x8, addend: 0x0, symName: __ZNSt12_Vector_baseISt8optionalI5TokenESaIS2_EE12_Vector_implC1Ev, symObjAddr: 0x1470, symBinAddr: 0x100006F2C, symSize: 0x28 }
  - { offsetInCU: 0xA7CD, offset: 0x19DE1, size: 0x8, addend: 0x0, symName: __ZNSt7__cxx1112basic_stringIcSt11char_traitsIcESaIcEE12_Alloc_hiderD1Ev, symObjAddr: 0x1450, symBinAddr: 0x100006F0C, symSize: 0x20 }
  - { offsetInCU: 0xA7AB, offset: 0x19DBF, size: 0x8, addend: 0x0, symName: __ZN9__gnu_cxx11char_traitsIcE6lengthEPKc, symObjAddr: 0x13FC, symBinAddr: 0x100006EB8, symSize: 0x54 }
  - { offsetInCU: 0xA7EA, offset: 0x19DFE, size: 0x8, addend: 0x0, symName: __ZN5Lexer8addTokenE9TokenTypeSt3any, symObjAddr: 0x1340, symBinAddr: 0x100006DFC, symSize: 0xBC }
  - { offsetInCU: 0xA84A, offset: 0x19E5E, size: 0x8, addend: 0x0, symName: __ZN5Lexer9makeTokenEc, symObjAddr: 0xAB0, symBinAddr: 0x10000656C, symSize: 0x890 }
  - { offsetInCU: 0xA8B8, offset: 0x19ECC, size: 0x8, addend: 0x0, symName: __ZN5Lexer8makeWordB5cxx11Ec, symObjAddr: 0x990, symBinAddr: 0x10000644C, symSize: 0x120 }
  - { offsetInCU: 0xA904, offset: 0x19F18, size: 0x8, addend: 0x0, symName: __ZN5Lexer10makeNumberEc, symObjAddr: 0x784, symBinAddr: 0x100006240, symSize: 0x20C }
  - { offsetInCU: 0xA963, offset: 0x19F77, size: 0x8, addend: 0x0, symName: __ZN5Lexer10makeTokensEv, symObjAddr: 0x5B4, symBinAddr: 0x100006070, symSize: 0x1D0 }
  - { offsetInCU: 0xA9F5, offset: 0x1A009, size: 0x8, addend: 0x0, symName: __ZNSt8optionalI5TokenED1Ev, symObjAddr: 0x570, symBinAddr: 0x100006050, symSize: 0x20 }
  - { offsetInCU: 0xAA52, offset: 0x1A066, size: 0x8, addend: 0x0, symName: __ZNSt14_Optional_baseI5TokenLb0ELb0EED2Ev, symObjAddr: 0x550, symBinAddr: 0x100006030, symSize: 0x20 }
  - { offsetInCU: 0xAA55, offset: 0x1A069, size: 0x8, addend: 0x0, symName: __ZN5Lexer9getTokensEv, symObjAddr: 0x518, symBinAddr: 0x100005FF8, symSize: 0x38 }
  - { offsetInCU: 0xAA82, offset: 0x1A096, size: 0x8, addend: 0x0, symName: __ZN5Lexer7consumeEv, symObjAddr: 0x4C0, symBinAddr: 0x100005FA0, symSize: 0x58 }
  - { offsetInCU: 0xAAAF, offset: 0x1A0C3, size: 0x8, addend: 0x0, symName: __ZN5Lexer4peekEv, symObjAddr: 0x474, symBinAddr: 0x100005F54, symSize: 0x4C }
  - { offsetInCU: 0xAADC, offset: 0x1A0F0, size: 0x8, addend: 0x0, symName: __ZN5Lexer7isAtEndEv, symObjAddr: 0x448, symBinAddr: 0x100005F28, symSize: 0x2C }
  - { offsetInCU: 0xAB6D, offset: 0x1A181, size: 0x8, addend: 0x0, symName: __ZN5LexerC1ENSt7__cxx1112basic_stringIcSt11char_traitsIcESaIcEEE, symObjAddr: 0x3C8, symBinAddr: 0x100005EA8, symSize: 0x80 }
  - { offsetInCU: 0xABA1, offset: 0x1A1B5, size: 0x8, addend: 0x0, symName: __ZN5LexerC2ENSt7__cxx1112basic_stringIcSt11char_traitsIcESaIcEEE, symObjAddr: 0x348, symBinAddr: 0x100005E28, symSize: 0x80 }
  - { offsetInCU: 0xABD7, offset: 0x1A1EB, size: 0x8, addend: 0x0, symName: __ZNSt6vectorISt8optionalI5TokenESaIS2_EEC1Ev, symObjAddr: 0x328, symBinAddr: 0x100005E08, symSize: 0x20 }
  - { offsetInCU: 0xAC1E, offset: 0x1A232, size: 0x8, addend: 0x0, symName: __ZNSt12_Vector_baseISt8optionalI5TokenESaIS2_EEC2Ev, symObjAddr: 0x308, symBinAddr: 0x100005DE8, symSize: 0x20 }
  - { offsetInCU: 0xAC79, offset: 0x1A28D, size: 0x8, addend: 0x0, symName: __ZNSt12_Vector_baseISt8optionalI5TokenESaIS2_EE12_Vector_implD1Ev, symObjAddr: 0x2E8, symBinAddr: 0x100005DC8, symSize: 0x20 }
  - { offsetInCU: 0xAC5D, offset: 0x1A271, size: 0x8, addend: 0x0, symName: __ZNSt11char_traitsIcE6lengthEPKc, symObjAddr: 0x198, symBinAddr: 0x100005D90, symSize: 0x38 }
  - { offsetInCU: 0xAC94, offset: 0x1A2A8, size: 0x8, addend: 0x0, symName: __ZdlPvS_, symObjAddr: 0x180, symBinAddr: 0x100005D78, symSize: 0x18 }
  - { offsetInCU: 0xACD5, offset: 0x1A2E9, size: 0x8, addend: 0x0, symName: __Z9__isctypeim, symObjAddr: 0xA0, symBinAddr: 0x100005CB0, symSize: 0x68 }
  - { offsetInCU: 0xAD15, offset: 0x1A329, size: 0x8, addend: 0x0, symName: __Z8__istypeim, symObjAddr: 0x28, symBinAddr: 0x100005C38, symSize: 0x78 }
  - { offsetInCU: 0xAD54, offset: 0x1A368, size: 0x8, addend: 0x0, symName: __Z7isasciii, symObjAddr: 0x8, symBinAddr: 0x100005C18, symSize: 0x20 }
  - { offsetInCU: 0x4655, offset: 0x1E9D5, size: 0x8, addend: 0x0, symName: __ZNSt12bad_any_castD0Ev, symObjAddr: 0x1568, symBinAddr: 0x10000A164, symSize: 0x28 }
  - { offsetInCU: 0x467F, offset: 0x1E9FF, size: 0x8, addend: 0x0, symName: __ZNSt12bad_any_castD1Ev, symObjAddr: 0x1534, symBinAddr: 0x10000A130, symSize: 0x34 }
  - { offsetInCU: 0x468D, offset: 0x1EA0D, size: 0x8, addend: 0x0, symName: __ZNSt3any17_Manager_externalINSt7__cxx1112basic_stringIcSt11char_traitsIcESaIcEEEE9_S_accessERKNS_8_StorageE, symObjAddr: 0x151C, symBinAddr: 0x10000A118, symSize: 0x18 }
  - { offsetInCU: 0x46BC, offset: 0x1EA3C, size: 0x8, addend: 0x0, symName: __ZSt12__any_casterINSt7__cxx1112basic_stringIcSt11char_traitsIcESaIcEEEEPvPKSt3any, symObjAddr: 0x1484, symBinAddr: 0x10000A0A8, symSize: 0x70 }
  - { offsetInCU: 0x46FA, offset: 0x1EA7A, size: 0x8, addend: 0x0, symName: __ZSt8any_castINSt7__cxx1112basic_stringIcSt11char_traitsIcESaIcEEEEPT_PSt3any, symObjAddr: 0xF50, symBinAddr: 0x10000A078, symSize: 0x30 }
  - { offsetInCU: 0x472D, offset: 0x1EAAD, size: 0x8, addend: 0x0, symName: __ZSt8any_castINSt7__cxx1112basic_stringIcSt11char_traitsIcESaIcEEEET_RSt3any, symObjAddr: 0xD7C, symBinAddr: 0x10000A028, symSize: 0x50 }
  - { offsetInCU: 0x478D, offset: 0x1EB0D, size: 0x8, addend: 0x0, symName: __ZN9__gnu_cxx6__stoaIffcJEEET0_PFT_PKT1_PPS3_DpT2_EPKcS5_PmS9_, symObjAddr: 0xC38, symBinAddr: 0x100009F2C, symSize: 0xFC }
  - { offsetInCU: 0x4906, offset: 0x1EC86, size: 0x8, addend: 0x0, symName: __ZZN9__gnu_cxx6__stoaIffcJEEET0_PFT_PKT1_PPS3_DpT2_EPKcS5_PmS9_EN11_Save_errnoC1Ev, symObjAddr: 0xBA4, symBinAddr: 0x100009E98, symSize: 0x30 }
  - { offsetInCU: 0x4931, offset: 0x1ECB1, size: 0x8, addend: 0x0, symName: __ZZN9__gnu_cxx6__stoaIffcJEEET0_PFT_PKT1_PPS3_DpT2_EPKcS5_PmS9_EN11_Save_errnoD1Ev, symObjAddr: 0xBD4, symBinAddr: 0x100009EC8, symSize: 0x4C }
  - { offsetInCU: 0x4998, offset: 0x1ED18, size: 0x8, addend: 0x0, symName: __ZZN9__gnu_cxx6__stoaIffcJEEET0_PFT_PKT1_PPS3_DpT2_EPKcS5_PmS9_EN10_Range_chk6_S_chkEfSt17integral_constantIbLb0EE, symObjAddr: 0xC20, symBinAddr: 0x100009F14, symSize: 0x18 }
  - { offsetInCU: 0x499B, offset: 0x1ED1B, size: 0x8, addend: 0x0, symName: __ZN9__gnu_cxx6__stoaIlicJiEEET0_PFT_PKT1_PPS3_DpT2_EPKcS5_PmS9_, symObjAddr: 0xAA8, symBinAddr: 0x100009D9C, symSize: 0xFC }
  - { offsetInCU: 0x4B25, offset: 0x1EEA5, size: 0x8, addend: 0x0, symName: __ZZN9__gnu_cxx6__stoaIlicJiEEET0_PFT_PKT1_PPS3_DpT2_EPKcS5_PmS9_EN11_Save_errnoC1Ev, symObjAddr: 0x9EC, symBinAddr: 0x100009CE0, symSize: 0x30 }
  - { offsetInCU: 0x4B50, offset: 0x1EED0, size: 0x8, addend: 0x0, symName: __ZZN9__gnu_cxx6__stoaIlicJiEEET0_PFT_PKT1_PPS3_DpT2_EPKcS5_PmS9_EN11_Save_errnoD1Ev, symObjAddr: 0xA1C, symBinAddr: 0x100009D10, symSize: 0x4C }
  - { offsetInCU: 0x4BD2, offset: 0x1EF52, size: 0x8, addend: 0x0, symName: __ZZN9__gnu_cxx6__stoaIlicJiEEET0_PFT_PKT1_PPS3_DpT2_EPKcS5_PmS9_EN10_Range_chk6_S_chkElSt17integral_constantIbLb1EE, symObjAddr: 0xA68, symBinAddr: 0x100009D5C, symSize: 0x40 }
  - { offsetInCU: 0x4BA8, offset: 0x1EF28, size: 0x8, addend: 0x0, symName: __ZN7Literal6acceptEP7Visitor, symObjAddr: 0x9B4, symBinAddr: 0x100009CA8, symSize: 0x38 }
  - { offsetInCU: 0x4BE1, offset: 0x1EF61, size: 0x8, addend: 0x0, symName: __ZN7Literal8getValueEv, symObjAddr: 0x81C, symBinAddr: 0x100009B10, symSize: 0x198 }
  - { offsetInCU: 0x4C0C, offset: 0x1EF8C, size: 0x8, addend: 0x0, symName: __ZN7Literal7getTypeB5cxx11Ev, symObjAddr: 0x7E4, symBinAddr: 0x100009AD8, symSize: 0x38 }
  - { offsetInCU: 0x4C7B, offset: 0x1EFFB, size: 0x8, addend: 0x0, symName: __ZN7LiteralC1ESt8optionalI5TokenE, symObjAddr: 0x738, symBinAddr: 0x100009A2C, symSize: 0xAC }
  - { offsetInCU: 0x4CAF, offset: 0x1F02F, size: 0x8, addend: 0x0, symName: __ZN7LiteralC2ESt8optionalI5TokenE, symObjAddr: 0x68C, symBinAddr: 0x100009980, symSize: 0xAC }
  - { offsetInCU: 0x4CE7, offset: 0x1F067, size: 0x8, addend: 0x0, symName: __ZN7LiteralC1Ev, symObjAddr: 0x604, symBinAddr: 0x100009938, symSize: 0x48 }
  - { offsetInCU: 0x4D11, offset: 0x1F091, size: 0x8, addend: 0x0, symName: __ZN7LiteralC2Ev, symObjAddr: 0x5BC, symBinAddr: 0x1000098F0, symSize: 0x48 }
  - { offsetInCU: 0x4D2B, offset: 0x1F0AB, size: 0x8, addend: 0x0, symName: __ZNKSt3any4typeEv, symObjAddr: 0x4F4, symBinAddr: 0x100009898, symSize: 0x58 }
  - { offsetInCU: 0x4D62, offset: 0x1F0E2, size: 0x8, addend: 0x0, symName: __ZSt20__throw_bad_any_castv, symObjAddr: 0x2B8, symBinAddr: 0x10000985C, symSize: 0x3C }
  - { offsetInCU: 0x4DAF, offset: 0x1F12F, size: 0x8, addend: 0x0, symName: __ZNSt12bad_any_castC1Ev, symObjAddr: 0x284, symBinAddr: 0x100009828, symSize: 0x34 }
  - { offsetInCU: 0x4DC1, offset: 0x1F141, size: 0x8, addend: 0x0, symName: __ZNKSt12bad_any_cast4whatEv, symObjAddr: 0x26C, symBinAddr: 0x100009810, symSize: 0x18 }
  - { offsetInCU: 0x4DE7, offset: 0x1F167, size: 0x8, addend: 0x0, symName: __ZNSt7__cxx114stofERKNS_12basic_stringIcSt11char_traitsIcESaIcEEEPm, symObjAddr: 0x1A8, symBinAddr: 0x1000097D4, symSize: 0x3C }
  - { offsetInCU: 0x4E22, offset: 0x1F1A2, size: 0x8, addend: 0x0, symName: __ZNSt7__cxx114stoiERKNS_12basic_stringIcSt11char_traitsIcESaIcEEEPmi, symObjAddr: 0x164, symBinAddr: 0x100009790, symSize: 0x44 }
  - { offsetInCU: 0x4E9B, offset: 0x1F21B, size: 0x8, addend: 0x0, symName: __ZNSt8bad_castC2Ev, symObjAddr: 0x118, symBinAddr: 0x10000975C, symSize: 0x34 }
  - { offsetInCU: 0x4EB2, offset: 0x1F232, size: 0x8, addend: 0x0, symName: __ZNKSt9type_infoeqERKS_, symObjAddr: 0x6C, symBinAddr: 0x1000096B0, symSize: 0xAC }
  - { offsetInCU: 0x4EEB, offset: 0x1F26B, size: 0x8, addend: 0x0, symName: __ZNKSt9type_info4nameEv, symObjAddr: 0x30, symBinAddr: 0x100009674, symSize: 0x3C }
  - { offsetInCU: 0xB1FC, offset: 0x2A489, size: 0x8, addend: 0x0, symName: __ZStL8__ioinit, symObjAddr: 0x67FF0, symBinAddr: 0x100028003, symSize: 0x0 }
  - { offsetInCU: 0xBD1D, offset: 0x2AFAA, size: 0x8, addend: 0x0, symName: __GLOBAL__sub_I_Parser.cpp, symObjAddr: 0x76D8, symBinAddr: 0x10000F118, symSize: 0x1C }
  - { offsetInCU: 0xBD5D, offset: 0x2AFEA, size: 0x8, addend: 0x0, symName: __ZN15ParserExceptionD0Ev, symObjAddr: 0x7038, symBinAddr: 0x10000F090, symSize: 0x28 }
  - { offsetInCU: 0xBD87, offset: 0x2B014, size: 0x8, addend: 0x0, symName: __ZN15ParserExceptionD1Ev, symObjAddr: 0x6FF8, symBinAddr: 0x10000F050, symSize: 0x40 }
  - { offsetInCU: 0xBDBB, offset: 0x2B048, size: 0x8, addend: 0x0, symName: __Z41__static_initialization_and_destruction_0ii, symObjAddr: 0x7678, symBinAddr: 0x10000F0B8, symSize: 0x60 }
  - { offsetInCU: 0xBDCE, offset: 0x2B05B, size: 0x8, addend: 0x0, symName: __ZNSt22_Optional_payload_baseI5TokenE14_M_copy_assignERKS1_, symObjAddr: 0x6E94, symBinAddr: 0x10000EFB8, symSize: 0x98 }
  - { offsetInCU: 0xBE5E, offset: 0x2B0EB, size: 0x8, addend: 0x0, symName: __ZNSt14default_deleteI4ExprEC1I7VarDeclvEERKS_IT_E, symObjAddr: 0x6E28, symBinAddr: 0x10000EFA0, symSize: 0x18 }
  - { offsetInCU: 0xBE63, offset: 0x2B0F0, size: 0x8, addend: 0x0, symName: __ZNSt10_Head_baseILm1ESt14default_deleteI7VarDeclELb1EE7_M_headERS3_, symObjAddr: 0x6E14, symBinAddr: 0x10000EF8C, symSize: 0x14 }
  - { offsetInCU: 0xBEE1, offset: 0x2B16E, size: 0x8, addend: 0x0, symName: __ZNSt10_Head_baseILm1ESt14default_deleteI7VarDeclELb1EEC2Ev, symObjAddr: 0x6E00, symBinAddr: 0x10000EF78, symSize: 0x14 }
  - { offsetInCU: 0xBF28, offset: 0x2B1B5, size: 0x8, addend: 0x0, symName: __ZNSt14default_deleteI4ExprEC1I9UnaryExprvEERKS_IT_E, symObjAddr: 0x6DE8, symBinAddr: 0x10000EF60, symSize: 0x18 }
  - { offsetInCU: 0xBF2B, offset: 0x2B1B8, size: 0x8, addend: 0x0, symName: __ZNSt10_Head_baseILm1ESt14default_deleteI9UnaryExprELb1EE7_M_headERS3_, symObjAddr: 0x6DD4, symBinAddr: 0x10000EF4C, symSize: 0x14 }
  - { offsetInCU: 0xBFAB, offset: 0x2B238, size: 0x8, addend: 0x0, symName: __ZNSt10_Head_baseILm1ESt14default_deleteI9UnaryExprELb1EEC2Ev, symObjAddr: 0x6DC0, symBinAddr: 0x10000EF38, symSize: 0x14 }
  - { offsetInCU: 0xBF93, offset: 0x2B220, size: 0x8, addend: 0x0, symName: __ZNSt10_Head_baseILm1ESt14default_deleteI10BinaryExprELb1EE7_M_headERS3_, symObjAddr: 0x6DAC, symBinAddr: 0x10000EF24, symSize: 0x14 }
  - { offsetInCU: 0xC015, offset: 0x2B2A2, size: 0x8, addend: 0x0, symName: __ZNSt10_Head_baseILm1ESt14default_deleteI10BinaryExprELb1EEC2Ev, symObjAddr: 0x6D98, symBinAddr: 0x10000EF10, symSize: 0x14 }
  - { offsetInCU: 0xBFFB, offset: 0x2B288, size: 0x8, addend: 0x0, symName: __ZNSt10_Head_baseILm1ESt14default_deleteI7LiteralELb1EE7_M_headERS3_, symObjAddr: 0x6D84, symBinAddr: 0x10000EEFC, symSize: 0x14 }
  - { offsetInCU: 0xC079, offset: 0x2B306, size: 0x8, addend: 0x0, symName: __ZNSt10_Head_baseILm1ESt14default_deleteI7LiteralELb1EEC2Ev, symObjAddr: 0x6D70, symBinAddr: 0x10000EEE8, symSize: 0x14 }
  - { offsetInCU: 0xC067, offset: 0x2B2F4, size: 0x8, addend: 0x0, symName: __ZNKSt15__new_allocatorISt10unique_ptrI4ExprSt14default_deleteIS1_EEE8max_sizeEv, symObjAddr: 0x6D54, symBinAddr: 0x10000EECC, symSize: 0x1C }
  - { offsetInCU: 0xC093, offset: 0x2B320, size: 0x8, addend: 0x0, symName: __ZSt7forwardIRSt8optionalI5TokenEEOT_RNSt16remove_referenceIS4_E4typeE, symObjAddr: 0x6D24, symBinAddr: 0x10000EEB8, symSize: 0x14 }
  - { offsetInCU: 0xC0C8, offset: 0x2B355, size: 0x8, addend: 0x0, symName: __ZNSt17_Optional_payloadI5TokenLb1ELb0ELb0EEaSERKS1_, symObjAddr: 0x6CFC, symBinAddr: 0x10000EE90, symSize: 0x28 }
  - { offsetInCU: 0xC17F, offset: 0x2B40C, size: 0x8, addend: 0x0, symName: __ZNSt10_Head_baseILm1ESt14default_deleteI4ExprELb1EEC2IS0_I7LiteralEEEOT_, symObjAddr: 0x6BC4, symBinAddr: 0x10000EE54, symSize: 0x3C }
  - { offsetInCU: 0xC1ED, offset: 0x2B47A, size: 0x8, addend: 0x0, symName: __ZNSt10_Head_baseILm1ESt14default_deleteI4ExprELb1EEC2IS0_I7VarDeclEEEOT_, symObjAddr: 0x6B88, symBinAddr: 0x10000EE18, symSize: 0x3C }
  - { offsetInCU: 0xC1DB, offset: 0x2B468, size: 0x8, addend: 0x0, symName: __ZNSt11_Tuple_implILm1EJSt14default_deleteI7VarDeclEEE7_M_headERS3_, symObjAddr: 0x6B6C, symBinAddr: 0x10000EDFC, symSize: 0x1C }
  - { offsetInCU: 0xC205, offset: 0x2B492, size: 0x8, addend: 0x0, symName: __ZNSt10_Head_baseILm0EP7VarDeclLb0EE7_M_headERS2_, symObjAddr: 0x6B58, symBinAddr: 0x10000EDE8, symSize: 0x14 }
  - { offsetInCU: 0xC270, offset: 0x2B4FD, size: 0x8, addend: 0x0, symName: __ZNSt10_Head_baseILm0EP7VarDeclLb0EEC2Ev, symObjAddr: 0x6B3C, symBinAddr: 0x10000EDCC, symSize: 0x1C }
  - { offsetInCU: 0xC2C2, offset: 0x2B54F, size: 0x8, addend: 0x0, symName: __ZNSt11_Tuple_implILm1EJSt14default_deleteI7VarDeclEEEC2Ev, symObjAddr: 0x6B1C, symBinAddr: 0x10000EDAC, symSize: 0x20 }
  - { offsetInCU: 0xC32F, offset: 0x2B5BC, size: 0x8, addend: 0x0, symName: __ZNSt10_Head_baseILm1ESt14default_deleteI4ExprELb1EEC2IS0_I9UnaryExprEEEOT_, symObjAddr: 0x6AE0, symBinAddr: 0x10000ED70, symSize: 0x3C }
  - { offsetInCU: 0xC31B, offset: 0x2B5A8, size: 0x8, addend: 0x0, symName: __ZNSt11_Tuple_implILm1EJSt14default_deleteI9UnaryExprEEE7_M_headERS3_, symObjAddr: 0x6AC4, symBinAddr: 0x10000ED54, symSize: 0x1C }
  - { offsetInCU: 0xC345, offset: 0x2B5D2, size: 0x8, addend: 0x0, symName: __ZNSt10_Head_baseILm0EP9UnaryExprLb0EE7_M_headERS2_, symObjAddr: 0x6AB0, symBinAddr: 0x10000ED40, symSize: 0x14 }
  - { offsetInCU: 0xC3B2, offset: 0x2B63F, size: 0x8, addend: 0x0, symName: __ZNSt10_Head_baseILm0EP9UnaryExprLb0EEC2Ev, symObjAddr: 0x6A94, symBinAddr: 0x10000ED24, symSize: 0x1C }
  - { offsetInCU: 0xC404, offset: 0x2B691, size: 0x8, addend: 0x0, symName: __ZNSt11_Tuple_implILm1EJSt14default_deleteI9UnaryExprEEEC2Ev, symObjAddr: 0x6A74, symBinAddr: 0x10000ED04, symSize: 0x20 }
  - { offsetInCU: 0xC3ED, offset: 0x2B67A, size: 0x8, addend: 0x0, symName: __ZNSt11_Tuple_implILm1EJSt14default_deleteI10BinaryExprEEE7_M_headERS3_, symObjAddr: 0x6A58, symBinAddr: 0x10000ECE8, symSize: 0x1C }
  - { offsetInCU: 0xC417, offset: 0x2B6A4, size: 0x8, addend: 0x0, symName: __ZNSt10_Head_baseILm0EP10BinaryExprLb0EE7_M_headERS2_, symObjAddr: 0x6A44, symBinAddr: 0x10000ECD4, symSize: 0x14 }
  - { offsetInCU: 0xC486, offset: 0x2B713, size: 0x8, addend: 0x0, symName: __ZNSt10_Head_baseILm0EP10BinaryExprLb0EEC2Ev, symObjAddr: 0x6A28, symBinAddr: 0x10000ECB8, symSize: 0x1C }
  - { offsetInCU: 0xC4D8, offset: 0x2B765, size: 0x8, addend: 0x0, symName: __ZNSt11_Tuple_implILm1EJSt14default_deleteI10BinaryExprEEEC2Ev, symObjAddr: 0x6A08, symBinAddr: 0x10000EC98, symSize: 0x20 }
  - { offsetInCU: 0xC4BF, offset: 0x2B74C, size: 0x8, addend: 0x0, symName: __ZNSt11_Tuple_implILm1EJSt14default_deleteI7LiteralEEE7_M_headERS3_, symObjAddr: 0x69EC, symBinAddr: 0x10000EC7C, symSize: 0x1C }
  - { offsetInCU: 0xC4E9, offset: 0x2B776, size: 0x8, addend: 0x0, symName: __ZNSt10_Head_baseILm0EP7LiteralLb0EE7_M_headERS2_, symObjAddr: 0x69D8, symBinAddr: 0x10000EC68, symSize: 0x14 }
  - { offsetInCU: 0xC554, offset: 0x2B7E1, size: 0x8, addend: 0x0, symName: __ZNSt10_Head_baseILm0EP7LiteralLb0EEC2Ev, symObjAddr: 0x69BC, symBinAddr: 0x10000EC4C, symSize: 0x1C }
  - { offsetInCU: 0xC5A6, offset: 0x2B833, size: 0x8, addend: 0x0, symName: __ZNSt11_Tuple_implILm1EJSt14default_deleteI7LiteralEEEC2Ev, symObjAddr: 0x699C, symBinAddr: 0x10000EC2C, symSize: 0x20 }
  - { offsetInCU: 0xC591, offset: 0x2B81E, size: 0x8, addend: 0x0, symName: __ZSt19__relocate_object_aISt10unique_ptrI4ExprSt14default_deleteIS1_EES4_SaIS4_EEvPT_PT0_RT1_, symObjAddr: 0x693C, symBinAddr: 0x10000EBE0, symSize: 0x4C }
  - { offsetInCU: 0xC5FC, offset: 0x2B889, size: 0x8, addend: 0x0, symName: __ZNKSt15__new_allocatorISt10unique_ptrI4ExprSt14default_deleteIS1_EEE11_M_max_sizeEv, symObjAddr: 0x6928, symBinAddr: 0x10000EBCC, symSize: 0x14 }
  - { offsetInCU: 0xC622, offset: 0x2B8AF, size: 0x8, addend: 0x0, symName: __ZNSt16allocator_traitsISaISt10unique_ptrI4ExprSt14default_deleteIS1_EEEE8max_sizeERKS5_, symObjAddr: 0x68D4, symBinAddr: 0x10000EBB0, symSize: 0x1C }
  - { offsetInCU: 0xC64C, offset: 0x2B8D9, size: 0x8, addend: 0x0, symName: __ZSt10_ConstructISt8optionalI5TokenEJRS2_EEvPT_DpOT0_, symObjAddr: 0x6840, symBinAddr: 0x10000EB38, symSize: 0x78 }
  - { offsetInCU: 0xC697, offset: 0x2B924, size: 0x8, addend: 0x0, symName: __ZNSt11__copy_moveILb0ELb0ESt26random_access_iterator_tagE8__copy_mIPSt8optionalI5TokenES6_EET0_T_S8_S7_, symObjAddr: 0x67CC, symBinAddr: 0x10000EAC4, symSize: 0x74 }
  - { offsetInCU: 0xC726, offset: 0x2B9B3, size: 0x8, addend: 0x0, symName: __ZNSt11__copy_moveILb0ELb0ESt26random_access_iterator_tagE8__copy_mIPKSt8optionalI5TokenEPS5_EET0_T_SA_S9_, symObjAddr: 0x6758, symBinAddr: 0x10000EA50, symSize: 0x74 }
  - { offsetInCU: 0xC7BE, offset: 0x2BA4B, size: 0x8, addend: 0x0, symName: __ZNSt8optionalI5TokenEaSERKS1_, symObjAddr: 0x6730, symBinAddr: 0x10000EA28, symSize: 0x28 }
  - { offsetInCU: 0xC7F0, offset: 0x2BA7D, size: 0x8, addend: 0x0, symName: __ZNSt14_Optional_baseI5TokenLb0ELb0EEaSERKS1_, symObjAddr: 0x6708, symBinAddr: 0x10000EA00, symSize: 0x28 }
  - { offsetInCU: 0xC823, offset: 0x2BAB0, size: 0x8, addend: 0x0, symName: __ZNSt17_Optional_payloadI5TokenLb0ELb0ELb0EEaSERKS1_, symObjAddr: 0x66E0, symBinAddr: 0x10000E9D8, symSize: 0x28 }
  - { offsetInCU: 0xC8CC, offset: 0x2BB59, size: 0x8, addend: 0x0, symName: __ZNSt11_Tuple_implILm1EJSt14default_deleteI4ExprEEEC2IS0_I7LiteralEEEOT_, symObjAddr: 0x65E4, symBinAddr: 0x10000E9A8, symSize: 0x30 }
  - { offsetInCU: 0xC935, offset: 0x2BBC2, size: 0x8, addend: 0x0, symName: __ZNSt11_Tuple_implILm1EJSt14default_deleteI4ExprEEEC2IS0_I7VarDeclEEEOT_, symObjAddr: 0x65B4, symBinAddr: 0x10000E978, symSize: 0x30 }
  - { offsetInCU: 0xC924, offset: 0x2BBB1, size: 0x8, addend: 0x0, symName: __ZSt12__get_helperILm1ESt14default_deleteI7VarDeclEJEERT0_RSt11_Tuple_implIXT_EJS3_DpT1_EE, symObjAddr: 0x6598, symBinAddr: 0x10000E95C, symSize: 0x1C }
  - { offsetInCU: 0xC966, offset: 0x2BBF3, size: 0x8, addend: 0x0, symName: __ZNSt11_Tuple_implILm0EJP7VarDeclSt14default_deleteIS0_EEE7_M_headERS4_, symObjAddr: 0x657C, symBinAddr: 0x10000E940, symSize: 0x1C }
  - { offsetInCU: 0xC9E9, offset: 0x2BC76, size: 0x8, addend: 0x0, symName: __ZNSt11_Tuple_implILm0EJP7VarDeclSt14default_deleteIS0_EEEC2Ev, symObjAddr: 0x6554, symBinAddr: 0x10000E918, symSize: 0x28 }
  - { offsetInCU: 0xCA2E, offset: 0x2BCBB, size: 0x8, addend: 0x0, symName: __ZNSt10_Head_baseILm0EP4ExprLb0EEC2IRS1_EEOT_, symObjAddr: 0x6524, symBinAddr: 0x10000E8E8, symSize: 0x30 }
  - { offsetInCU: 0xCAB4, offset: 0x2BD41, size: 0x8, addend: 0x0, symName: __ZNSt11_Tuple_implILm1EJSt14default_deleteI4ExprEEEC2IS0_I9UnaryExprEEEOT_, symObjAddr: 0x64F4, symBinAddr: 0x10000E8B8, symSize: 0x30 }
  - { offsetInCU: 0xCAA1, offset: 0x2BD2E, size: 0x8, addend: 0x0, symName: __ZSt12__get_helperILm1ESt14default_deleteI9UnaryExprEJEERT0_RSt11_Tuple_implIXT_EJS3_DpT1_EE, symObjAddr: 0x64D8, symBinAddr: 0x10000E89C, symSize: 0x1C }
  - { offsetInCU: 0xCAE3, offset: 0x2BD70, size: 0x8, addend: 0x0, symName: __ZNSt11_Tuple_implILm0EJP9UnaryExprSt14default_deleteIS0_EEE7_M_headERS4_, symObjAddr: 0x64BC, symBinAddr: 0x10000E880, symSize: 0x1C }
  - { offsetInCU: 0xCB68, offset: 0x2BDF5, size: 0x8, addend: 0x0, symName: __ZNSt11_Tuple_implILm0EJP9UnaryExprSt14default_deleteIS0_EEEC2Ev, symObjAddr: 0x6494, symBinAddr: 0x10000E858, symSize: 0x28 }
  - { offsetInCU: 0xCB4D, offset: 0x2BDDA, size: 0x8, addend: 0x0, symName: __ZSt12__get_helperILm1ESt14default_deleteI10BinaryExprEJEERT0_RSt11_Tuple_implIXT_EJS3_DpT1_EE, symObjAddr: 0x6478, symBinAddr: 0x10000E83C, symSize: 0x1C }
  - { offsetInCU: 0xCB8F, offset: 0x2BE1C, size: 0x8, addend: 0x0, symName: __ZNSt11_Tuple_implILm0EJP10BinaryExprSt14default_deleteIS0_EEE7_M_headERS4_, symObjAddr: 0x645C, symBinAddr: 0x10000E820, symSize: 0x1C }
  - { offsetInCU: 0xCC16, offset: 0x2BEA3, size: 0x8, addend: 0x0, symName: __ZNSt11_Tuple_implILm0EJP10BinaryExprSt14default_deleteIS0_EEEC2Ev, symObjAddr: 0x6434, symBinAddr: 0x10000E7F8, symSize: 0x28 }
  - { offsetInCU: 0xCBF9, offset: 0x2BE86, size: 0x8, addend: 0x0, symName: __ZSt12__get_helperILm1ESt14default_deleteI7LiteralEJEERT0_RSt11_Tuple_implIXT_EJS3_DpT1_EE, symObjAddr: 0x6418, symBinAddr: 0x10000E7DC, symSize: 0x1C }
  - { offsetInCU: 0xCC3B, offset: 0x2BEC8, size: 0x8, addend: 0x0, symName: __ZNSt11_Tuple_implILm0EJP7LiteralSt14default_deleteIS0_EEE7_M_headERS4_, symObjAddr: 0x63FC, symBinAddr: 0x10000E7C0, symSize: 0x1C }
  - { offsetInCU: 0xCCBE, offset: 0x2BF4B, size: 0x8, addend: 0x0, symName: __ZNSt11_Tuple_implILm0EJP7LiteralSt14default_deleteIS0_EEEC2Ev, symObjAddr: 0x63D4, symBinAddr: 0x10000E798, symSize: 0x28 }
  - { offsetInCU: 0xCCA5, offset: 0x2BF32, size: 0x8, addend: 0x0, symName: __ZSt14__relocate_a_1IPSt10unique_ptrI4ExprSt14default_deleteIS1_EES5_SaIS4_EET0_T_S8_S7_RT1_, symObjAddr: 0x62A8, symBinAddr: 0x10000E714, symSize: 0x84 }
  - { offsetInCU: 0xCD2E, offset: 0x2BFBB, size: 0x8, addend: 0x0, symName: __ZSt12__niter_baseIPSt10unique_ptrI4ExprSt14default_deleteIS1_EEET_S6_, symObjAddr: 0x6294, symBinAddr: 0x10000E700, symSize: 0x14 }
  - { offsetInCU: 0xCD65, offset: 0x2BFF2, size: 0x8, addend: 0x0, symName: __ZNSt15__new_allocatorISt10unique_ptrI4ExprSt14default_deleteIS1_EEE8allocateEmPKv, symObjAddr: 0x621C, symBinAddr: 0x10000E688, symSize: 0x78 }
  - { offsetInCU: 0xCDB7, offset: 0x2C044, size: 0x8, addend: 0x0, symName: __ZNKSt12_Vector_baseISt10unique_ptrI4ExprSt14default_deleteIS1_EESaIS4_EE19_M_get_Tp_allocatorEv, symObjAddr: 0x6208, symBinAddr: 0x10000E674, symSize: 0x14 }
  - { offsetInCU: 0xCDDD, offset: 0x2C06A, size: 0x8, addend: 0x0, symName: __ZNSt6vectorISt10unique_ptrI4ExprSt14default_deleteIS1_EESaIS4_EE11_S_max_sizeERKS5_, symObjAddr: 0x61D0, symBinAddr: 0x10000E63C, symSize: 0x38 }
  - { offsetInCU: 0xCE29, offset: 0x2C0B6, size: 0x8, addend: 0x0, symName: __ZSt8_DestroyISt10unique_ptrI4ExprSt14default_deleteIS1_EEEvPT_, symObjAddr: 0x6194, symBinAddr: 0x10000E61C, symSize: 0x20 }
  - { offsetInCU: 0xCE5A, offset: 0x2C0E7, size: 0x8, addend: 0x0, symName: __ZSt11__addressofISt10unique_ptrI4ExprSt14default_deleteIS1_EEEPT_RS5_, symObjAddr: 0x6180, symBinAddr: 0x10000E608, symSize: 0x14 }
  - { offsetInCU: 0xCE8B, offset: 0x2C118, size: 0x8, addend: 0x0, symName: __ZSt16__do_uninit_copyIPSt8optionalI5TokenES3_ET0_T_S5_S4_, symObjAddr: 0x60EC, symBinAddr: 0x10000E574, symSize: 0x94 }
  - { offsetInCU: 0xCEF3, offset: 0x2C180, size: 0x8, addend: 0x0, symName: __ZSt14__copy_move_a2ILb0EPSt8optionalI5TokenES3_ET1_T0_S5_S4_, symObjAddr: 0x60C0, symBinAddr: 0x10000E548, symSize: 0x2C }
  - { offsetInCU: 0xCF5F, offset: 0x2C1EC, size: 0x8, addend: 0x0, symName: __ZN9__gnu_cxx17__normal_iteratorIPSt8optionalI5TokenESt6vectorIS3_SaIS3_EEEppEv, symObjAddr: 0x6080, symBinAddr: 0x10000E520, symSize: 0x28 }
  - { offsetInCU: 0xCF8B, offset: 0x2C218, size: 0x8, addend: 0x0, symName: __ZN9__gnu_cxxneIPSt8optionalI5TokenESt6vectorIS3_SaIS3_EEEEbRKNS_17__normal_iteratorIT_T0_EESD_, symObjAddr: 0x603C, symBinAddr: 0x10000E4DC, symSize: 0x44 }
  - { offsetInCU: 0xCFDC, offset: 0x2C269, size: 0x8, addend: 0x0, symName: __ZNK9__gnu_cxx17__normal_iteratorIPSt8optionalI5TokenESt6vectorIS3_SaIS3_EEEplEl, symObjAddr: 0x5FFC, symBinAddr: 0x10000E49C, symSize: 0x40 }
  - { offsetInCU: 0xD013, offset: 0x2C2A0, size: 0x8, addend: 0x0, symName: __ZSt14__copy_move_a2ILb0EPKSt8optionalI5TokenEPS2_ET1_T0_S7_S6_, symObjAddr: 0x5FD0, symBinAddr: 0x10000E470, symSize: 0x2C }
  - { offsetInCU: 0xD11D, offset: 0x2C3AA, size: 0x8, addend: 0x0, symName: __ZNSt11_Tuple_implILm0EJP4ExprSt14default_deleteIS0_EEEC2IRS1_JS2_I7LiteralEEvEEOT_DpOT0_, symObjAddr: 0x5E60, symBinAddr: 0x10000E41C, symSize: 0x54 }
  - { offsetInCU: 0xD1B8, offset: 0x2C445, size: 0x8, addend: 0x0, symName: __ZNSt11_Tuple_implILm0EJP4ExprSt14default_deleteIS0_EEEC2IRS1_JS2_I7VarDeclEEvEEOT_DpOT0_, symObjAddr: 0x5DCC, symBinAddr: 0x10000E3C8, symSize: 0x54 }
  - { offsetInCU: 0xD1B7, offset: 0x2C444, size: 0x8, addend: 0x0, symName: __ZSt3getILm1EJP7VarDeclSt14default_deleteIS0_EEERNSt13tuple_elementIXT_ESt5tupleIJDpT0_EEE4typeERS8_, symObjAddr: 0x5DB0, symBinAddr: 0x10000E3AC, symSize: 0x1C }
  - { offsetInCU: 0xD1FB, offset: 0x2C488, size: 0x8, addend: 0x0, symName: __ZSt12__get_helperILm0EP7VarDeclJSt14default_deleteIS0_EEERT0_RSt11_Tuple_implIXT_EJS4_DpT1_EE, symObjAddr: 0x5D94, symBinAddr: 0x10000E390, symSize: 0x1C }
  - { offsetInCU: 0xD2A5, offset: 0x2C532, size: 0x8, addend: 0x0, symName: __ZNSt5tupleIJP7VarDeclSt14default_deleteIS0_EEEC1ILb1ELb1EEEv, symObjAddr: 0x5D74, symBinAddr: 0x10000E370, symSize: 0x20 }
  - { offsetInCU: 0xD33B, offset: 0x2C5C8, size: 0x8, addend: 0x0, symName: __ZNSt11_Tuple_implILm0EJP4ExprSt14default_deleteIS0_EEEC2IRS1_JS2_I9UnaryExprEEvEEOT_DpOT0_, symObjAddr: 0x5D20, symBinAddr: 0x10000E31C, symSize: 0x54 }
  - { offsetInCU: 0xD338, offset: 0x2C5C5, size: 0x8, addend: 0x0, symName: __ZSt7forwardIRP4ExprEOT_RNSt16remove_referenceIS3_E4typeE, symObjAddr: 0x5D0C, symBinAddr: 0x10000E308, symSize: 0x14 }
  - { offsetInCU: 0xD36F, offset: 0x2C5FC, size: 0x8, addend: 0x0, symName: __ZSt3getILm1EJP9UnaryExprSt14default_deleteIS0_EEERNSt13tuple_elementIXT_ESt5tupleIJDpT0_EEE4typeERS8_, symObjAddr: 0x5CF0, symBinAddr: 0x10000E2EC, symSize: 0x1C }
  - { offsetInCU: 0xD3B3, offset: 0x2C640, size: 0x8, addend: 0x0, symName: __ZSt12__get_helperILm0EP9UnaryExprJSt14default_deleteIS0_EEERT0_RSt11_Tuple_implIXT_EJS4_DpT1_EE, symObjAddr: 0x5CD4, symBinAddr: 0x10000E2D0, symSize: 0x1C }
  - { offsetInCU: 0xD45F, offset: 0x2C6EC, size: 0x8, addend: 0x0, symName: __ZNSt5tupleIJP9UnaryExprSt14default_deleteIS0_EEEC1ILb1ELb1EEEv, symObjAddr: 0x5CB4, symBinAddr: 0x10000E2B0, symSize: 0x20 }
  - { offsetInCU: 0xD455, offset: 0x2C6E2, size: 0x8, addend: 0x0, symName: __ZSt3getILm1EJP10BinaryExprSt14default_deleteIS0_EEERNSt13tuple_elementIXT_ESt5tupleIJDpT0_EEE4typeERS8_, symObjAddr: 0x5C98, symBinAddr: 0x10000E294, symSize: 0x1C }
  - { offsetInCU: 0xD499, offset: 0x2C726, size: 0x8, addend: 0x0, symName: __ZSt12__get_helperILm0EP10BinaryExprJSt14default_deleteIS0_EEERT0_RSt11_Tuple_implIXT_EJS4_DpT1_EE, symObjAddr: 0x5C7C, symBinAddr: 0x10000E278, symSize: 0x1C }
  - { offsetInCU: 0xD547, offset: 0x2C7D4, size: 0x8, addend: 0x0, symName: __ZNSt5tupleIJP10BinaryExprSt14default_deleteIS0_EEEC1ILb1ELb1EEEv, symObjAddr: 0x5C5C, symBinAddr: 0x10000E258, symSize: 0x20 }
  - { offsetInCU: 0xD53B, offset: 0x2C7C8, size: 0x8, addend: 0x0, symName: __ZSt3getILm1EJP7LiteralSt14default_deleteIS0_EEERNSt13tuple_elementIXT_ESt5tupleIJDpT0_EEE4typeERS8_, symObjAddr: 0x5C40, symBinAddr: 0x10000E23C, symSize: 0x1C }
  - { offsetInCU: 0xD57F, offset: 0x2C80C, size: 0x8, addend: 0x0, symName: __ZSt12__get_helperILm0EP7LiteralJSt14default_deleteIS0_EEERT0_RSt11_Tuple_implIXT_EJS4_DpT1_EE, symObjAddr: 0x5C24, symBinAddr: 0x10000E220, symSize: 0x1C }
  - { offsetInCU: 0xD629, offset: 0x2C8B6, size: 0x8, addend: 0x0, symName: __ZNSt5tupleIJP7LiteralSt14default_deleteIS0_EEEC1ILb1ELb1EEEv, symObjAddr: 0x5C04, symBinAddr: 0x10000E200, symSize: 0x20 }
  - { offsetInCU: 0xD61F, offset: 0x2C8AC, size: 0x8, addend: 0x0, symName: __ZNSt15__new_allocatorISt10unique_ptrI4ExprSt14default_deleteIS1_EEE7destroyIS4_EEvPT_, symObjAddr: 0x5B74, symBinAddr: 0x10000E1DC, symSize: 0x24 }
  - { offsetInCU: 0xD65D, offset: 0x2C8EA, size: 0x8, addend: 0x0, symName: __ZSt12__relocate_aIPSt10unique_ptrI4ExprSt14default_deleteIS1_EES5_SaIS4_EET0_T_S8_S7_RT1_, symObjAddr: 0x5B18, symBinAddr: 0x10000E180, symSize: 0x5C }
  - { offsetInCU: 0xD6D5, offset: 0x2C962, size: 0x8, addend: 0x0, symName: __ZNSt16allocator_traitsISaISt10unique_ptrI4ExprSt14default_deleteIS1_EEEE8allocateERS5_m, symObjAddr: 0x5AF0, symBinAddr: 0x10000E158, symSize: 0x28 }
  - { offsetInCU: 0xD714, offset: 0x2C9A1, size: 0x8, addend: 0x0, symName: __ZNKSt6vectorISt10unique_ptrI4ExprSt14default_deleteIS1_EESaIS4_EE4sizeEv, symObjAddr: 0x5A90, symBinAddr: 0x10000E130, symSize: 0x28 }
  - { offsetInCU: 0xD73E, offset: 0x2C9CB, size: 0x8, addend: 0x0, symName: __ZNKSt6vectorISt10unique_ptrI4ExprSt14default_deleteIS1_EESaIS4_EE8max_sizeEv, symObjAddr: 0x5A70, symBinAddr: 0x10000E110, symSize: 0x20 }
  - { offsetInCU: 0xD764, offset: 0x2C9F1, size: 0x8, addend: 0x0, symName: __ZNSt12_Destroy_auxILb0EE9__destroyIPSt10unique_ptrI4ExprSt14default_deleteIS3_EEEEvT_S8_, symObjAddr: 0x5A04, symBinAddr: 0x10000E0C4, symSize: 0x4C }
  - { offsetInCU: 0xD7A8, offset: 0x2CA35, size: 0x8, addend: 0x0, symName: __ZNSt15__new_allocatorISt10unique_ptrI4ExprSt14default_deleteIS1_EEE10deallocateEPS4_m, symObjAddr: 0x59D4, symBinAddr: 0x10000E094, symSize: 0x30 }
  - { offsetInCU: 0xD7EC, offset: 0x2CA79, size: 0x8, addend: 0x0, symName: __ZNSt20__uninitialized_copyILb0EE13__uninit_copyIPSt8optionalI5TokenES5_EET0_T_S7_S6_, symObjAddr: 0x579C, symBinAddr: 0x10000E068, symSize: 0x2C }
  - { offsetInCU: 0xD844, offset: 0x2CAD1, size: 0x8, addend: 0x0, symName: __ZSt12__niter_wrapIPSt8optionalI5TokenEET_RKS4_S4_, symObjAddr: 0x5784, symBinAddr: 0x10000E050, symSize: 0x18 }
  - { offsetInCU: 0xD880, offset: 0x2CB0D, size: 0x8, addend: 0x0, symName: __ZSt14__copy_move_a1ILb0EPSt8optionalI5TokenES3_ET1_T0_S5_S4_, symObjAddr: 0x5758, symBinAddr: 0x10000E024, symSize: 0x2C }
  - { offsetInCU: 0xD8E8, offset: 0x2CB75, size: 0x8, addend: 0x0, symName: __ZSt12__niter_baseIPSt8optionalI5TokenEET_S4_, symObjAddr: 0x5744, symBinAddr: 0x10000E010, symSize: 0x14 }
  - { offsetInCU: 0xD91B, offset: 0x2CBA8, size: 0x8, addend: 0x0, symName: __ZNSt12_Destroy_auxILb0EE9__destroyIN9__gnu_cxx17__normal_iteratorIPSt8optionalI5TokenESt6vectorIS6_SaIS6_EEEEEEvT_SC_, symObjAddr: 0x56F4, symBinAddr: 0x10000DFC0, symSize: 0x50 }
  - { offsetInCU: 0xD95B, offset: 0x2CBE8, size: 0x8, addend: 0x0, symName: __ZSt12__niter_wrapIN9__gnu_cxx17__normal_iteratorIPSt8optionalI5TokenESt6vectorIS4_SaIS4_EEEES5_ET_SA_T0_, symObjAddr: 0x56B8, symBinAddr: 0x10000DF84, symSize: 0x3C }
  - { offsetInCU: 0xD9A8, offset: 0x2CC35, size: 0x8, addend: 0x0, symName: __ZSt14__copy_move_a1ILb0EPKSt8optionalI5TokenEPS2_ET1_T0_S7_S6_, symObjAddr: 0x568C, symBinAddr: 0x10000DF58, symSize: 0x2C }
  - { offsetInCU: 0xDA10, offset: 0x2CC9D, size: 0x8, addend: 0x0, symName: __ZSt12__niter_baseIPSt8optionalI5TokenESt6vectorIS2_SaIS2_EEET_N9__gnu_cxx17__normal_iteratorIS7_T0_EE, symObjAddr: 0x566C, symBinAddr: 0x10000DF38, symSize: 0x20 }
  - { offsetInCU: 0xDA4C, offset: 0x2CCD9, size: 0x8, addend: 0x0, symName: __ZSt12__niter_baseIPKSt8optionalI5TokenESt6vectorIS2_SaIS2_EEET_N9__gnu_cxx17__normal_iteratorIS8_T0_EE, symObjAddr: 0x564C, symBinAddr: 0x10000DF18, symSize: 0x20 }
  - { offsetInCU: 0xDB1E, offset: 0x2CDAB, size: 0x8, addend: 0x0, symName: __ZNSt5tupleIJP4ExprSt14default_deleteIS0_EEEC1IRS1_S2_I7LiteralELb1EEEOT_OT0_, symObjAddr: 0x54D0, symBinAddr: 0x10000DEC8, symSize: 0x50 }
  - { offsetInCU: 0xDBB0, offset: 0x2CE3D, size: 0x8, addend: 0x0, symName: __ZNSt5tupleIJP4ExprSt14default_deleteIS0_EEEC1IRS1_S2_I7VarDeclELb1EEEOT_OT0_, symObjAddr: 0x5430, symBinAddr: 0x10000DE78, symSize: 0x50 }
  - { offsetInCU: 0xDBB0, offset: 0x2CE3D, size: 0x8, addend: 0x0, symName: __ZNSt15__uniq_ptr_implI7VarDeclSt14default_deleteIS0_EE7releaseEv, symObjAddr: 0x53FC, symBinAddr: 0x10000DE44, symSize: 0x34 }
  - { offsetInCU: 0xDBEA, offset: 0x2CE77, size: 0x8, addend: 0x0, symName: __ZNSt15__uniq_ptr_implI7VarDeclSt14default_deleteIS0_EE10_M_deleterEv, symObjAddr: 0x53E0, symBinAddr: 0x10000DE28, symSize: 0x1C }
  - { offsetInCU: 0xDC16, offset: 0x2CEA3, size: 0x8, addend: 0x0, symName: __ZSt3getILm0EJP7VarDeclSt14default_deleteIS0_EEERNSt13tuple_elementIXT_ESt5tupleIJDpT0_EEE4typeERS8_, symObjAddr: 0x53C4, symBinAddr: 0x10000DE0C, symSize: 0x1C }
  - { offsetInCU: 0xDCC0, offset: 0x2CF4D, size: 0x8, addend: 0x0, symName: __ZNSt15__uniq_ptr_implI7VarDeclSt14default_deleteIS0_EEC2EPS0_, symObjAddr: 0x5388, symBinAddr: 0x10000DDD0, symSize: 0x3C }
  - { offsetInCU: 0xDD48, offset: 0x2CFD5, size: 0x8, addend: 0x0, symName: __ZNSt5tupleIJP4ExprSt14default_deleteIS0_EEEC1IRS1_S2_I9UnaryExprELb1EEEOT_OT0_, symObjAddr: 0x5338, symBinAddr: 0x10000DD80, symSize: 0x50 }
  - { offsetInCU: 0xDD46, offset: 0x2CFD3, size: 0x8, addend: 0x0, symName: __ZNSt15__uniq_ptr_implI9UnaryExprSt14default_deleteIS0_EE7releaseEv, symObjAddr: 0x5304, symBinAddr: 0x10000DD4C, symSize: 0x34 }
  - { offsetInCU: 0xDD80, offset: 0x2D00D, size: 0x8, addend: 0x0, symName: __ZNSt15__uniq_ptr_implI9UnaryExprSt14default_deleteIS0_EE10_M_deleterEv, symObjAddr: 0x52E8, symBinAddr: 0x10000DD30, symSize: 0x1C }
  - { offsetInCU: 0xDDAC, offset: 0x2D039, size: 0x8, addend: 0x0, symName: __ZSt3getILm0EJP9UnaryExprSt14default_deleteIS0_EEERNSt13tuple_elementIXT_ESt5tupleIJDpT0_EEE4typeERS8_, symObjAddr: 0x52CC, symBinAddr: 0x10000DD14, symSize: 0x1C }
  - { offsetInCU: 0xDE58, offset: 0x2D0E5, size: 0x8, addend: 0x0, symName: __ZNSt15__uniq_ptr_implI9UnaryExprSt14default_deleteIS0_EEC2EPS0_, symObjAddr: 0x5290, symBinAddr: 0x10000DCD8, symSize: 0x3C }
  - { offsetInCU: 0xDE4A, offset: 0x2D0D7, size: 0x8, addend: 0x0, symName: __ZNSt15__uniq_ptr_implI10BinaryExprSt14default_deleteIS0_EE7releaseEv, symObjAddr: 0x525C, symBinAddr: 0x10000DCA4, symSize: 0x34 }
  - { offsetInCU: 0xDE84, offset: 0x2D111, size: 0x8, addend: 0x0, symName: __ZNSt15__uniq_ptr_implI10BinaryExprSt14default_deleteIS0_EE10_M_deleterEv, symObjAddr: 0x5240, symBinAddr: 0x10000DC88, symSize: 0x1C }
  - { offsetInCU: 0xDEB0, offset: 0x2D13D, size: 0x8, addend: 0x0, symName: __ZSt3getILm0EJP10BinaryExprSt14default_deleteIS0_EEERNSt13tuple_elementIXT_ESt5tupleIJDpT0_EEE4typeERS8_, symObjAddr: 0x5224, symBinAddr: 0x10000DC6C, symSize: 0x1C }
  - { offsetInCU: 0xDF5E, offset: 0x2D1EB, size: 0x8, addend: 0x0, symName: __ZNSt15__uniq_ptr_implI10BinaryExprSt14default_deleteIS0_EEC2EPS0_, symObjAddr: 0x51E8, symBinAddr: 0x10000DC30, symSize: 0x3C }
  - { offsetInCU: 0xDF4E, offset: 0x2D1DB, size: 0x8, addend: 0x0, symName: __ZNSt15__uniq_ptr_implI7LiteralSt14default_deleteIS0_EE7releaseEv, symObjAddr: 0x51B4, symBinAddr: 0x10000DBFC, symSize: 0x34 }
  - { offsetInCU: 0xDF88, offset: 0x2D215, size: 0x8, addend: 0x0, symName: __ZNSt15__uniq_ptr_implI7LiteralSt14default_deleteIS0_EE10_M_deleterEv, symObjAddr: 0x5198, symBinAddr: 0x10000DBE0, symSize: 0x1C }
  - { offsetInCU: 0xDFB4, offset: 0x2D241, size: 0x8, addend: 0x0, symName: __ZSt3getILm0EJP7LiteralSt14default_deleteIS0_EEERNSt13tuple_elementIXT_ESt5tupleIJDpT0_EEE4typeERS8_, symObjAddr: 0x517C, symBinAddr: 0x10000DBC4, symSize: 0x1C }
  - { offsetInCU: 0xE05E, offset: 0x2D2EB, size: 0x8, addend: 0x0, symName: __ZNSt15__uniq_ptr_implI7LiteralSt14default_deleteIS0_EEC2EPS0_, symObjAddr: 0x5140, symBinAddr: 0x10000DB88, symSize: 0x3C }
  - { offsetInCU: 0xE052, offset: 0x2D2DF, size: 0x8, addend: 0x0, symName: __ZNK9__gnu_cxx17__normal_iteratorIPSt10unique_ptrI4ExprSt14default_deleteIS2_EESt6vectorIS5_SaIS5_EEEmiEl, symObjAddr: 0x5038, symBinAddr: 0x10000DB44, symSize: 0x44 }
  - { offsetInCU: 0xE089, offset: 0x2D316, size: 0x8, addend: 0x0, symName: __ZNSt16allocator_traitsISaISt10unique_ptrI4ExprSt14default_deleteIS1_EEEE7destroyIS4_EEvRS5_PT_, symObjAddr: 0x5010, symBinAddr: 0x10000DB1C, symSize: 0x28 }
  - { offsetInCU: 0xE0CD, offset: 0x2D35A, size: 0x8, addend: 0x0, symName: __ZNSt6vectorISt10unique_ptrI4ExprSt14default_deleteIS1_EESaIS4_EE11_S_relocateEPS4_S7_S7_RS5_, symObjAddr: 0x4FC8, symBinAddr: 0x10000DAE8, symSize: 0x34 }
  - { offsetInCU: 0xE12E, offset: 0x2D3BB, size: 0x8, addend: 0x0, symName: __ZNSt12_Vector_baseISt10unique_ptrI4ExprSt14default_deleteIS1_EESaIS4_EE11_M_allocateEm, symObjAddr: 0x4F90, symBinAddr: 0x10000DAB0, symSize: 0x38 }
  - { offsetInCU: 0xE16B, offset: 0x2D3F8, size: 0x8, addend: 0x0, symName: __ZN9__gnu_cxxmiIPSt10unique_ptrI4ExprSt14default_deleteIS2_EESt6vectorIS5_SaIS5_EEEENS_17__normal_iteratorIT_T0_E15difference_typeERKSD_SG_, symObjAddr: 0x4F50, symBinAddr: 0x10000DA70, symSize: 0x40 }
  - { offsetInCU: 0xE1BC, offset: 0x2D449, size: 0x8, addend: 0x0, symName: __ZNKSt6vectorISt10unique_ptrI4ExprSt14default_deleteIS1_EESaIS4_EE12_M_check_lenEmPKc, symObjAddr: 0x4E60, symBinAddr: 0x10000D9A4, symSize: 0xCC }
  - { offsetInCU: 0xE219, offset: 0x2D4A6, size: 0x8, addend: 0x0, symName: __ZNSt15__new_allocatorISt10unique_ptrI4ExprSt14default_deleteIS1_EEE9constructIS4_JS4_EEEvPT_DpOT0_, symObjAddr: 0x4DE8, symBinAddr: 0x10000D954, symSize: 0x50 }
  - { offsetInCU: 0xE271, offset: 0x2D4FE, size: 0x8, addend: 0x0, symName: __ZSt8_DestroyIPSt10unique_ptrI4ExprSt14default_deleteIS1_EEEvT_S6_, symObjAddr: 0x4DA4, symBinAddr: 0x10000D92C, symSize: 0x28 }
  - { offsetInCU: 0xE2B1, offset: 0x2D53E, size: 0x8, addend: 0x0, symName: __ZNSt16allocator_traitsISaISt10unique_ptrI4ExprSt14default_deleteIS1_EEEE10deallocateERS5_PS4_m, symObjAddr: 0x4D74, symBinAddr: 0x10000D8FC, symSize: 0x30 }
  - { offsetInCU: 0xE360, offset: 0x2D5ED, size: 0x8, addend: 0x0, symName: __ZNSt15__new_allocatorISt10unique_ptrI4ExprSt14default_deleteIS1_EEEC2Ev, symObjAddr: 0x4D60, symBinAddr: 0x10000D8E8, symSize: 0x14 }
  - { offsetInCU: 0xE33D, offset: 0x2D5CA, size: 0x8, addend: 0x0, symName: __ZSt18uninitialized_copyIPSt8optionalI5TokenES3_ET0_T_S5_S4_, symObjAddr: 0x4C1C, symBinAddr: 0x10000D8B4, symSize: 0x34 }
  - { offsetInCU: 0xE3B5, offset: 0x2D642, size: 0x8, addend: 0x0, symName: __ZSt13__copy_move_aILb0EPSt8optionalI5TokenES3_ET1_T0_S5_S4_, symObjAddr: 0x4BBC, symBinAddr: 0x10000D854, symSize: 0x60 }
  - { offsetInCU: 0xE41D, offset: 0x2D6AA, size: 0x8, addend: 0x0, symName: __ZSt12__miter_baseIPSt8optionalI5TokenEET_S4_, symObjAddr: 0x4BA8, symBinAddr: 0x10000D840, symSize: 0x14 }
  - { offsetInCU: 0xE450, offset: 0x2D6DD, size: 0x8, addend: 0x0, symName: __ZSt8_DestroyIN9__gnu_cxx17__normal_iteratorIPSt8optionalI5TokenESt6vectorIS4_SaIS4_EEEEEvT_SA_, symObjAddr: 0x4B80, symBinAddr: 0x10000D818, symSize: 0x28 }
  - { offsetInCU: 0xE490, offset: 0x2D71D, size: 0x8, addend: 0x0, symName: __ZSt13__copy_move_aILb0EN9__gnu_cxx17__normal_iteratorIPKSt8optionalI5TokenESt6vectorIS4_SaIS4_EEEENS1_IPS4_S9_EEET1_T0_SE_SD_, symObjAddr: 0x4B20, symBinAddr: 0x10000D7B8, symSize: 0x60 }
  - { offsetInCU: 0xE4F8, offset: 0x2D785, size: 0x8, addend: 0x0, symName: __ZSt12__miter_baseIN9__gnu_cxx17__normal_iteratorIPKSt8optionalI5TokenESt6vectorIS4_SaIS4_EEEEET_SB_, symObjAddr: 0x4B0C, symBinAddr: 0x10000D7A4, symSize: 0x14 }
  - { offsetInCU: 0xE52F, offset: 0x2D7BC, size: 0x8, addend: 0x0, symName: __ZNSt6vectorISt8optionalI5TokenESaIS2_EE15_M_erase_at_endEPS2_, symObjAddr: 0x49E0, symBinAddr: 0x10000D730, symSize: 0x74 }
  - { offsetInCU: 0xE615, offset: 0x2D8A2, size: 0x8, addend: 0x0, symName: __ZNSt15__uniq_ptr_implI4ExprSt14default_deleteIS0_EEC2IS1_I7LiteralEEEPS0_OT_, symObjAddr: 0x48D0, symBinAddr: 0x10000D6E4, symSize: 0x4C }
  - { offsetInCU: 0xE60E, offset: 0x2D89B, size: 0x8, addend: 0x0, symName: __ZSt7forwardIR7LiteralEOT_RNSt16remove_referenceIS2_E4typeE, symObjAddr: 0x48BC, symBinAddr: 0x10000D6D0, symSize: 0x14 }
  - { offsetInCU: 0xE64B, offset: 0x2D8D8, size: 0x8, addend: 0x0, symName: __ZSt7forwardI10BinaryExprEOT_RNSt16remove_referenceIS1_E4typeE, symObjAddr: 0x48A8, symBinAddr: 0x10000D6BC, symSize: 0x14 }
  - { offsetInCU: 0xE707, offset: 0x2D994, size: 0x8, addend: 0x0, symName: __ZNSt15__uniq_ptr_implI4ExprSt14default_deleteIS0_EEC2IS1_I7VarDeclEEEPS0_OT_, symObjAddr: 0x47B8, symBinAddr: 0x10000D670, symSize: 0x4C }
  - { offsetInCU: 0xE700, offset: 0x2D98D, size: 0x8, addend: 0x0, symName: __ZSt7forwardISt14default_deleteI7VarDeclEEOT_RNSt16remove_referenceIS3_E4typeE, symObjAddr: 0x47A4, symBinAddr: 0x10000D65C, symSize: 0x14 }
  - { offsetInCU: 0xE735, offset: 0x2D9C2, size: 0x8, addend: 0x0, symName: __ZNSt10unique_ptrI7VarDeclSt14default_deleteIS0_EE7releaseEv, symObjAddr: 0x4788, symBinAddr: 0x10000D640, symSize: 0x1C }
  - { offsetInCU: 0xE75F, offset: 0x2D9EC, size: 0x8, addend: 0x0, symName: __ZNKSt14default_deleteI7VarDeclEclEPS0_, symObjAddr: 0x4744, symBinAddr: 0x10000D5FC, symSize: 0x44 }
  - { offsetInCU: 0xE7CB, offset: 0x2DA58, size: 0x8, addend: 0x0, symName: __ZN7VarDeclD1Ev, symObjAddr: 0x46F4, symBinAddr: 0x10000D5AC, symSize: 0x50 }
  - { offsetInCU: 0xE7E7, offset: 0x2DA74, size: 0x8, addend: 0x0, symName: __ZSt4moveIRP7VarDeclEONSt16remove_referenceIT_E4typeEOS4_, symObjAddr: 0x46E0, symBinAddr: 0x10000D598, symSize: 0x14 }
  - { offsetInCU: 0xE81C, offset: 0x2DAA9, size: 0x8, addend: 0x0, symName: __ZNSt10unique_ptrI7VarDeclSt14default_deleteIS0_EE11get_deleterEv, symObjAddr: 0x46C4, symBinAddr: 0x10000D57C, symSize: 0x1C }
  - { offsetInCU: 0xE846, offset: 0x2DAD3, size: 0x8, addend: 0x0, symName: __ZNSt15__uniq_ptr_implI7VarDeclSt14default_deleteIS0_EE6_M_ptrEv, symObjAddr: 0x46A8, symBinAddr: 0x10000D560, symSize: 0x1C }
  - { offsetInCU: 0xE8DD, offset: 0x2DB6A, size: 0x8, addend: 0x0, symName: __ZNSt10unique_ptrI7VarDeclSt14default_deleteIS0_EEC1IS2_vEEPS0_, symObjAddr: 0x4680, symBinAddr: 0x10000D538, symSize: 0x28 }
  - { offsetInCU: 0xE95A, offset: 0x2DBE7, size: 0x8, addend: 0x0, symName: __ZNSt15__uniq_ptr_dataI7VarDeclSt14default_deleteIS0_ELb1ELb1EECI1St15__uniq_ptr_implIS0_S2_EEPS0_, symObjAddr: 0x4658, symBinAddr: 0x10000D510, symSize: 0x28 }
  - { offsetInCU: 0xE9B3, offset: 0x2DC40, size: 0x8, addend: 0x0, symName: __ZNSt15__uniq_ptr_implI4ExprSt14default_deleteIS0_EEC2IS1_I9UnaryExprEEEPS0_OT_, symObjAddr: 0x45F8, symBinAddr: 0x10000D4C4, symSize: 0x4C }
  - { offsetInCU: 0xE9AA, offset: 0x2DC37, size: 0x8, addend: 0x0, symName: __ZSt7forwardISt14default_deleteI9UnaryExprEEOT_RNSt16remove_referenceIS3_E4typeE, symObjAddr: 0x45E4, symBinAddr: 0x10000D4B0, symSize: 0x14 }
  - { offsetInCU: 0xE9DF, offset: 0x2DC6C, size: 0x8, addend: 0x0, symName: __ZNSt10unique_ptrI9UnaryExprSt14default_deleteIS0_EE7releaseEv, symObjAddr: 0x45C8, symBinAddr: 0x10000D494, symSize: 0x1C }
  - { offsetInCU: 0xEA09, offset: 0x2DC96, size: 0x8, addend: 0x0, symName: __ZNKSt14default_deleteI9UnaryExprEclEPS0_, symObjAddr: 0x4584, symBinAddr: 0x10000D450, symSize: 0x44 }
  - { offsetInCU: 0xEA77, offset: 0x2DD04, size: 0x8, addend: 0x0, symName: __ZN9UnaryExprD1Ev, symObjAddr: 0x4540, symBinAddr: 0x10000D40C, symSize: 0x44 }
  - { offsetInCU: 0xEA91, offset: 0x2DD1E, size: 0x8, addend: 0x0, symName: __ZSt4moveIRP9UnaryExprEONSt16remove_referenceIT_E4typeEOS4_, symObjAddr: 0x452C, symBinAddr: 0x10000D3F8, symSize: 0x14 }
  - { offsetInCU: 0xEAC6, offset: 0x2DD53, size: 0x8, addend: 0x0, symName: __ZNSt10unique_ptrI9UnaryExprSt14default_deleteIS0_EE11get_deleterEv, symObjAddr: 0x4510, symBinAddr: 0x10000D3DC, symSize: 0x1C }
  - { offsetInCU: 0xEAF0, offset: 0x2DD7D, size: 0x8, addend: 0x0, symName: __ZNSt15__uniq_ptr_implI9UnaryExprSt14default_deleteIS0_EE6_M_ptrEv, symObjAddr: 0x44F4, symBinAddr: 0x10000D3C0, symSize: 0x1C }
  - { offsetInCU: 0xEB89, offset: 0x2DE16, size: 0x8, addend: 0x0, symName: __ZNSt10unique_ptrI9UnaryExprSt14default_deleteIS0_EEC1IS2_vEEPS0_, symObjAddr: 0x44CC, symBinAddr: 0x10000D398, symSize: 0x28 }
  - { offsetInCU: 0xEC06, offset: 0x2DE93, size: 0x8, addend: 0x0, symName: __ZNSt15__uniq_ptr_dataI9UnaryExprSt14default_deleteIS0_ELb1ELb1EECI1St15__uniq_ptr_implIS0_S2_EEPS0_, symObjAddr: 0x44A4, symBinAddr: 0x10000D370, symSize: 0x28 }
  - { offsetInCU: 0xEC2F, offset: 0x2DEBC, size: 0x8, addend: 0x0, symName: __ZNSt14default_deleteI4ExprEC1I10BinaryExprvEERKS_IT_E, symObjAddr: 0x448C, symBinAddr: 0x10000D358, symSize: 0x18 }
  - { offsetInCU: 0xEC3C, offset: 0x2DEC9, size: 0x8, addend: 0x0, symName: __ZSt7forwardISt14default_deleteI10BinaryExprEEOT_RNSt16remove_referenceIS3_E4typeE, symObjAddr: 0x4478, symBinAddr: 0x10000D344, symSize: 0x14 }
  - { offsetInCU: 0xEC71, offset: 0x2DEFE, size: 0x8, addend: 0x0, symName: __ZNSt10unique_ptrI10BinaryExprSt14default_deleteIS0_EE7releaseEv, symObjAddr: 0x445C, symBinAddr: 0x10000D328, symSize: 0x1C }
  - { offsetInCU: 0xEC9B, offset: 0x2DF28, size: 0x8, addend: 0x0, symName: __ZNKSt14default_deleteI10BinaryExprEclEPS0_, symObjAddr: 0x4418, symBinAddr: 0x10000D2E4, symSize: 0x44 }
  - { offsetInCU: 0xECD6, offset: 0x2DF63, size: 0x8, addend: 0x0, symName: __ZSt4moveIRP10BinaryExprEONSt16remove_referenceIT_E4typeEOS4_, symObjAddr: 0x4404, symBinAddr: 0x10000D2D0, symSize: 0x14 }
  - { offsetInCU: 0xED0B, offset: 0x2DF98, size: 0x8, addend: 0x0, symName: __ZNSt10unique_ptrI10BinaryExprSt14default_deleteIS0_EE11get_deleterEv, symObjAddr: 0x43E8, symBinAddr: 0x10000D2B4, symSize: 0x1C }
  - { offsetInCU: 0xED35, offset: 0x2DFC2, size: 0x8, addend: 0x0, symName: __ZNSt15__uniq_ptr_implI10BinaryExprSt14default_deleteIS0_EE6_M_ptrEv, symObjAddr: 0x43CC, symBinAddr: 0x10000D298, symSize: 0x1C }
  - { offsetInCU: 0xEDD0, offset: 0x2E05D, size: 0x8, addend: 0x0, symName: __ZNSt10unique_ptrI10BinaryExprSt14default_deleteIS0_EEC1IS2_vEEPS0_, symObjAddr: 0x43A4, symBinAddr: 0x10000D270, symSize: 0x28 }
  - { offsetInCU: 0xEE4D, offset: 0x2E0DA, size: 0x8, addend: 0x0, symName: __ZNSt15__uniq_ptr_dataI10BinaryExprSt14default_deleteIS0_ELb1ELb1EECI1St15__uniq_ptr_implIS0_S2_EEPS0_, symObjAddr: 0x437C, symBinAddr: 0x10000D248, symSize: 0x28 }
  - { offsetInCU: 0xEE1B, offset: 0x2E0A8, size: 0x8, addend: 0x0, symName: __ZSt7forwardIRSt10unique_ptrI4ExprSt14default_deleteIS1_EEEOT_RNSt16remove_referenceIS6_E4typeE, symObjAddr: 0x4354, symBinAddr: 0x10000D234, symSize: 0x14 }
  - { offsetInCU: 0xEEAF, offset: 0x2E13C, size: 0x8, addend: 0x0, symName: __ZNSt11_Tuple_implILm1EJSt14default_deleteI4ExprEEEC2EOS3_, symObjAddr: 0x433C, symBinAddr: 0x10000D21C, symSize: 0x18 }
  - { offsetInCU: 0xEEA9, offset: 0x2E136, size: 0x8, addend: 0x0, symName: __ZSt4moveIRSt5tupleIJP4ExprSt14default_deleteIS1_EEEEONSt16remove_referenceIT_E4typeEOS8_, symObjAddr: 0x4328, symBinAddr: 0x10000D208, symSize: 0x14 }
  - { offsetInCU: 0xEF35, offset: 0x2E1C2, size: 0x8, addend: 0x0, symName: __ZNSt14default_deleteI4ExprEC1I7LiteralvEERKS_IT_E, symObjAddr: 0x4310, symBinAddr: 0x10000D1F0, symSize: 0x18 }
  - { offsetInCU: 0xEF40, offset: 0x2E1CD, size: 0x8, addend: 0x0, symName: __ZSt7forwardISt14default_deleteI7LiteralEEOT_RNSt16remove_referenceIS3_E4typeE, symObjAddr: 0x42FC, symBinAddr: 0x10000D1DC, symSize: 0x14 }
  - { offsetInCU: 0xEF75, offset: 0x2E202, size: 0x8, addend: 0x0, symName: __ZNSt10unique_ptrI7LiteralSt14default_deleteIS0_EE7releaseEv, symObjAddr: 0x42E0, symBinAddr: 0x10000D1C0, symSize: 0x1C }
  - { offsetInCU: 0xEF9F, offset: 0x2E22C, size: 0x8, addend: 0x0, symName: __ZNSt10unique_ptrI4ExprSt14default_deleteIS0_EE5resetEPS0_, symObjAddr: 0x42A0, symBinAddr: 0x10000D180, symSize: 0x40 }
  - { offsetInCU: 0xEFDA, offset: 0x2E267, size: 0x8, addend: 0x0, symName: __ZNKSt14default_deleteI7LiteralEclEPS0_, symObjAddr: 0x425C, symBinAddr: 0x10000D13C, symSize: 0x44 }
  - { offsetInCU: 0xF015, offset: 0x2E2A2, size: 0x8, addend: 0x0, symName: __ZSt4moveIRP7LiteralEONSt16remove_referenceIT_E4typeEOS4_, symObjAddr: 0x4248, symBinAddr: 0x10000D128, symSize: 0x14 }
  - { offsetInCU: 0xF04A, offset: 0x2E2D7, size: 0x8, addend: 0x0, symName: __ZNSt10unique_ptrI7LiteralSt14default_deleteIS0_EE11get_deleterEv, symObjAddr: 0x422C, symBinAddr: 0x10000D10C, symSize: 0x1C }
  - { offsetInCU: 0xF074, offset: 0x2E301, size: 0x8, addend: 0x0, symName: __ZNSt15__uniq_ptr_implI7LiteralSt14default_deleteIS0_EE6_M_ptrEv, symObjAddr: 0x4210, symBinAddr: 0x10000D0F0, symSize: 0x1C }
  - { offsetInCU: 0xF10B, offset: 0x2E398, size: 0x8, addend: 0x0, symName: __ZNSt10unique_ptrI7LiteralSt14default_deleteIS0_EEC1IS2_vEEPS0_, symObjAddr: 0x41E8, symBinAddr: 0x10000D0C8, symSize: 0x28 }
  - { offsetInCU: 0xF188, offset: 0x2E415, size: 0x8, addend: 0x0, symName: __ZNSt15__uniq_ptr_dataI7LiteralSt14default_deleteIS0_ELb1ELb1EECI1St15__uniq_ptr_implIS0_S2_EEPS0_, symObjAddr: 0x41C0, symBinAddr: 0x10000D0A0, symSize: 0x28 }
  - { offsetInCU: 0xF15E, offset: 0x2E3EB, size: 0x8, addend: 0x0, symName: __ZNSt6vectorISt10unique_ptrI4ExprSt14default_deleteIS1_EESaIS4_EE4backEv, symObjAddr: 0x4000, symBinAddr: 0x10000D068, symSize: 0x38 }
  - { offsetInCU: 0xF188, offset: 0x2E415, size: 0x8, addend: 0x0, symName: __ZNSt6vectorISt10unique_ptrI4ExprSt14default_deleteIS1_EESaIS4_EE17_M_realloc_insertIJS4_EEEvN9__gnu_cxx17__normal_iteratorIPS4_S6_EEDpOT_, symObjAddr: 0x3E88, symBinAddr: 0x10000CEF0, symSize: 0x178 }
  - { offsetInCU: 0xF243, offset: 0x2E4D0, size: 0x8, addend: 0x0, symName: __ZNSt16allocator_traitsISaISt10unique_ptrI4ExprSt14default_deleteIS1_EEEE9constructIS4_JS4_EEEvRS5_PT_DpOT0_, symObjAddr: 0x3E28, symBinAddr: 0x10000CEB8, symSize: 0x38 }
  - { offsetInCU: 0xF2A8, offset: 0x2E535, size: 0x8, addend: 0x0, symName: __ZSt7forwardISt10unique_ptrI4ExprSt14default_deleteIS1_EEEOT_RNSt16remove_referenceIS5_E4typeE, symObjAddr: 0x3E14, symBinAddr: 0x10000CEA4, symSize: 0x14 }
  - { offsetInCU: 0xF2DD, offset: 0x2E56A, size: 0x8, addend: 0x0, symName: __ZNKSt10unique_ptrI4ExprSt14default_deleteIS0_EEcvbEv, symObjAddr: 0x3DEC, symBinAddr: 0x10000CE7C, symSize: 0x28 }
  - { offsetInCU: 0xF303, offset: 0x2E590, size: 0x8, addend: 0x0, symName: __ZSt8_DestroyIPSt10unique_ptrI4ExprSt14default_deleteIS1_EES4_EvT_S6_RSaIT0_E, symObjAddr: 0x3DC0, symBinAddr: 0x10000CE50, symSize: 0x2C }
  - { offsetInCU: 0xF35D, offset: 0x2E5EA, size: 0x8, addend: 0x0, symName: __ZNSt12_Vector_baseISt10unique_ptrI4ExprSt14default_deleteIS1_EESaIS4_EE19_M_get_Tp_allocatorEv, symObjAddr: 0x3DAC, symBinAddr: 0x10000CE3C, symSize: 0x14 }
  - { offsetInCU: 0xF387, offset: 0x2E614, size: 0x8, addend: 0x0, symName: __ZNSt12_Vector_baseISt10unique_ptrI4ExprSt14default_deleteIS1_EESaIS4_EE13_M_deallocateEPS4_m, symObjAddr: 0x3D70, symBinAddr: 0x10000CE00, symSize: 0x3C }
  - { offsetInCU: 0xF43C, offset: 0x2E6C9, size: 0x8, addend: 0x0, symName: __ZNSt15__new_allocatorISt10unique_ptrI4ExprSt14default_deleteIS1_EEED2Ev, symObjAddr: 0x3D5C, symBinAddr: 0x10000CDEC, symSize: 0x14 }
  - { offsetInCU: 0xF493, offset: 0x2E720, size: 0x8, addend: 0x0, symName: __ZNSt12_Vector_baseISt10unique_ptrI4ExprSt14default_deleteIS1_EESaIS4_EE17_Vector_impl_dataC2Ev, symObjAddr: 0x3D30, symBinAddr: 0x10000CDC0, symSize: 0x2C }
  - { offsetInCU: 0xF4AB, offset: 0x2E738, size: 0x8, addend: 0x0, symName: __ZNSaISt10unique_ptrI4ExprSt14default_deleteIS0_EEEC2Ev, symObjAddr: 0x3D10, symBinAddr: 0x10000CDA0, symSize: 0x20 }
  - { offsetInCU: 0xF499, offset: 0x2E726, size: 0x8, addend: 0x0, symName: __ZSt22__uninitialized_copy_aIPSt8optionalI5TokenES3_S2_ET0_T_S5_S4_RSaIT1_E, symObjAddr: 0x3B48, symBinAddr: 0x10000CD70, symSize: 0x30 }
  - { offsetInCU: 0xF509, offset: 0x2E796, size: 0x8, addend: 0x0, symName: __ZSt4copyIPSt8optionalI5TokenES3_ET0_T_S5_S4_, symObjAddr: 0x3B00, symBinAddr: 0x10000CD28, symSize: 0x48 }
  - { offsetInCU: 0xF567, offset: 0x2E7F4, size: 0x8, addend: 0x0, symName: __ZSt8_DestroyIN9__gnu_cxx17__normal_iteratorIPSt8optionalI5TokenESt6vectorIS4_SaIS4_EEEES4_EvT_SA_RSaIT0_E, symObjAddr: 0x3AD4, symBinAddr: 0x10000CCFC, symSize: 0x2C }
  - { offsetInCU: 0xF5BD, offset: 0x2E84A, size: 0x8, addend: 0x0, symName: __ZSt4copyIN9__gnu_cxx17__normal_iteratorIPKSt8optionalI5TokenESt6vectorIS4_SaIS4_EEEENS1_IPS4_S9_EEET0_T_SE_SD_, symObjAddr: 0x3A64, symBinAddr: 0x10000CCB4, symSize: 0x48 }
  - { offsetInCU: 0xF61F, offset: 0x2E8AC, size: 0x8, addend: 0x0, symName: __ZNSt6vectorISt8optionalI5TokenESaIS2_EE20_M_allocate_and_copyIN9__gnu_cxx17__normal_iteratorIPKS2_S4_EEEEPS2_mT_SC_, symObjAddr: 0x39BC, symBinAddr: 0x10000CC30, symSize: 0x84 }
  - { offsetInCU: 0xF696, offset: 0x2E923, size: 0x8, addend: 0x0, symName: __ZNKSt6vectorISt8optionalI5TokenESaIS2_EE8capacityEv, symObjAddr: 0x3948, symBinAddr: 0x10000CC08, symSize: 0x28 }
  - { offsetInCU: 0xF6BC, offset: 0x2E949, size: 0x8, addend: 0x0, symName: __ZSt15__alloc_on_copyISaISt8optionalI5TokenEEEvRT_RKS4_, symObjAddr: 0x3930, symBinAddr: 0x10000CBF0, symSize: 0x18 }
  - { offsetInCU: 0xF704, offset: 0x2E991, size: 0x8, addend: 0x0, symName: __ZNSt6vectorISt8optionalI5TokenESaIS2_EE5clearEv, symObjAddr: 0x3904, symBinAddr: 0x10000CBC4, symSize: 0x2C }
  - { offsetInCU: 0xF72A, offset: 0x2E9B7, size: 0x8, addend: 0x0, symName: __ZStneRKSaISt8optionalI5TokenEES4_, symObjAddr: 0x38EC, symBinAddr: 0x10000CBAC, symSize: 0x18 }
  - { offsetInCU: 0xF755, offset: 0x2E9E2, size: 0x8, addend: 0x0, symName: __ZSt11__addressofIKSt6vectorISt8optionalI5TokenESaIS3_EEEPT_RS7_, symObjAddr: 0x38C4, symBinAddr: 0x10000CB98, symSize: 0x14 }
  - { offsetInCU: 0xF810, offset: 0x2EA9D, size: 0x8, addend: 0x0, symName: __ZNSt10unique_ptrI4ExprSt14default_deleteIS0_EEC1I7LiteralS1_IS5_EvEEOS_IT_T0_E, symObjAddr: 0x35C0, symBinAddr: 0x10000CB48, symSize: 0x50 }
  - { offsetInCU: 0xF8A3, offset: 0x2EB30, size: 0x8, addend: 0x0, symName: __ZNSt15__uniq_ptr_dataI4ExprSt14default_deleteIS0_ELb1ELb1EECI1St15__uniq_ptr_implIS0_S2_EIS1_I7LiteralEEEPS0_OT_, symObjAddr: 0x3590, symBinAddr: 0x10000CB18, symSize: 0x30 }
  - { offsetInCU: 0xF872, offset: 0x2EAFF, size: 0x8, addend: 0x0, symName: __ZSt11make_uniqueI7LiteralJRS0_EENSt8__detail9_MakeUniqIT_E15__single_objectEDpOT0_, symObjAddr: 0x3510, symBinAddr: 0x10000CA98, symSize: 0x80 }
  - { offsetInCU: 0xF8EA, offset: 0x2EB77, size: 0x8, addend: 0x0, symName: __ZN7LiteralC1ERKS_, symObjAddr: 0x347C, symBinAddr: 0x10000CA04, symSize: 0x94 }
  - { offsetInCU: 0xF938, offset: 0x2EBC5, size: 0x8, addend: 0x0, symName: __ZN4ExprC2ERKS_, symObjAddr: 0x3450, symBinAddr: 0x10000C9D8, symSize: 0x2C }
  - { offsetInCU: 0xF957, offset: 0x2EBE4, size: 0x8, addend: 0x0, symName: __ZSt11make_uniqueI10BinaryExprJS0_EENSt8__detail9_MakeUniqIT_E15__single_objectEDpOT0_, symObjAddr: 0x33D0, symBinAddr: 0x10000C958, symSize: 0x80 }
  - { offsetInCU: 0xF9CC, offset: 0x2EC59, size: 0x8, addend: 0x0, symName: __ZN10BinaryExprC1EOS_, symObjAddr: 0x3320, symBinAddr: 0x10000C8A8, symSize: 0xB0 }
  - { offsetInCU: 0xFA16, offset: 0x2ECA3, size: 0x8, addend: 0x0, symName: __ZN4ExprC2EOS_, symObjAddr: 0x32F4, symBinAddr: 0x10000C87C, symSize: 0x2C }
  - { offsetInCU: 0xFAC0, offset: 0x2ED4D, size: 0x8, addend: 0x0, symName: __ZNSt10unique_ptrI4ExprSt14default_deleteIS0_EEC1I7VarDeclS1_IS5_EvEEOS_IT_T0_E, symObjAddr: 0x3264, symBinAddr: 0x10000C82C, symSize: 0x50 }
  - { offsetInCU: 0xFB53, offset: 0x2EDE0, size: 0x8, addend: 0x0, symName: __ZNSt15__uniq_ptr_dataI4ExprSt14default_deleteIS0_ELb1ELb1EECI1St15__uniq_ptr_implIS0_S2_EIS1_I7VarDeclEEEPS0_OT_, symObjAddr: 0x3234, symBinAddr: 0x10000C7FC, symSize: 0x30 }
  - { offsetInCU: 0xFB8E, offset: 0x2EE1B, size: 0x8, addend: 0x0, symName: __ZNSt10unique_ptrI7VarDeclSt14default_deleteIS0_EED1Ev, symObjAddr: 0x31CC, symBinAddr: 0x10000C794, symSize: 0x68 }
  - { offsetInCU: 0xFBAA, offset: 0x2EE37, size: 0x8, addend: 0x0, symName: __ZSt11make_uniqueI7VarDeclJRNSt7__cxx1112basic_stringIcSt11char_traitsIcESaIcEEES7_St10unique_ptrI4ExprSt14default_deleteIS9_EEEENSt8__detail9_MakeUniqIT_E15__single_objectEDpOT0_, symObjAddr: 0x30BC, symBinAddr: 0x10000C684, symSize: 0x110 }
  - { offsetInCU: 0xFC0C, offset: 0x2EE99, size: 0x8, addend: 0x0, symName: __ZSt4moveISt10unique_ptrI4ExprSt14default_deleteIS1_EEEONSt16remove_referenceIT_E4typeEOS6_, symObjAddr: 0x30A8, symBinAddr: 0x10000C670, symSize: 0x14 }
  - { offsetInCU: 0xFCC9, offset: 0x2EF56, size: 0x8, addend: 0x0, symName: __ZNSt10unique_ptrI4ExprSt14default_deleteIS0_EEC1I9UnaryExprS1_IS5_EvEEOS_IT_T0_E, symObjAddr: 0x3058, symBinAddr: 0x10000C620, symSize: 0x50 }
  - { offsetInCU: 0xFD5C, offset: 0x2EFE9, size: 0x8, addend: 0x0, symName: __ZNSt15__uniq_ptr_dataI4ExprSt14default_deleteIS0_ELb1ELb1EECI1St15__uniq_ptr_implIS0_S2_EIS1_I9UnaryExprEEEPS0_OT_, symObjAddr: 0x3028, symBinAddr: 0x10000C5F0, symSize: 0x30 }
  - { offsetInCU: 0xFD97, offset: 0x2F024, size: 0x8, addend: 0x0, symName: __ZNSt10unique_ptrI9UnaryExprSt14default_deleteIS0_EED1Ev, symObjAddr: 0x2FC0, symBinAddr: 0x10000C588, symSize: 0x68 }
  - { offsetInCU: 0xFDB1, offset: 0x2F03E, size: 0x8, addend: 0x0, symName: __ZSt11make_uniqueI9UnaryExprJR5TokenRSt10unique_ptrI4ExprSt14default_deleteIS4_EEEENSt8__detail9_MakeUniqIT_E15__single_objectEDpOT0_, symObjAddr: 0x2F04, symBinAddr: 0x10000C4CC, symSize: 0xBC }
  - { offsetInCU: 0xFE00, offset: 0x2F08D, size: 0x8, addend: 0x0, symName: __ZNSt10unique_ptrI4ExprSt14default_deleteIS0_EEaSI10BinaryExprS1_IS5_EEENSt9enable_ifIXsrSt6__and_IJS8_IJSt14is_convertibleINS_IT_T0_E7pointerEPS0_ESt6__not_ISt8is_arrayISA_EEEESt13is_assignableIRS2_OSB_EEE5valueERS3_E4typeEOSC_, symObjAddr: 0x2EB4, symBinAddr: 0x10000C47C, symSize: 0x50 }
  - { offsetInCU: 0xFEB9, offset: 0x2F146, size: 0x8, addend: 0x0, symName: __ZNSt10unique_ptrI10BinaryExprSt14default_deleteIS0_EED1Ev, symObjAddr: 0x2E4C, symBinAddr: 0x10000C414, symSize: 0x68 }
  - { offsetInCU: 0xFED1, offset: 0x2F15E, size: 0x8, addend: 0x0, symName: __ZSt11make_uniqueI10BinaryExprJRSt10unique_ptrI4ExprSt14default_deleteIS2_EER5TokenS6_EENSt8__detail9_MakeUniqIT_E15__single_objectEDpOT0_, symObjAddr: 0x2D7C, symBinAddr: 0x10000C344, symSize: 0xD0 }
  - { offsetInCU: 0xFF8D, offset: 0x2F21A, size: 0x8, addend: 0x0, symName: __ZNSt15__uniq_ptr_implI4ExprSt14default_deleteIS0_EEC2EOS3_, symObjAddr: 0x2D34, symBinAddr: 0x10000C2FC, symSize: 0x48 }
  - { offsetInCU: 0xFFD3, offset: 0x2F260, size: 0x8, addend: 0x0, symName: __ZNSt5tupleIJP4ExprSt14default_deleteIS0_EEEC1EOS4_, symObjAddr: 0x2D0C, symBinAddr: 0x10000C2D4, symSize: 0x28 }
  - { offsetInCU: 0x1002C, offset: 0x2F2B9, size: 0x8, addend: 0x0, symName: __ZNSt11_Tuple_implILm0EJP4ExprSt14default_deleteIS0_EEEC2EOS4_, symObjAddr: 0x2CD4, symBinAddr: 0x10000C29C, symSize: 0x38 }
  - { offsetInCU: 0x10020, offset: 0x2F2AD, size: 0x8, addend: 0x0, symName: __ZNSt10unique_ptrI4ExprSt14default_deleteIS0_EEaSI7LiteralS1_IS5_EEENSt9enable_ifIXsrSt6__and_IJS8_IJSt14is_convertibleINS_IT_T0_E7pointerEPS0_ESt6__not_ISt8is_arrayISA_EEEESt13is_assignableIRS2_OSB_EEE5valueERS3_E4typeEOSC_, symObjAddr: 0x2BE8, symBinAddr: 0x10000C24C, symSize: 0x50 }
  - { offsetInCU: 0x100D5, offset: 0x2F362, size: 0x8, addend: 0x0, symName: __ZNSt10unique_ptrI7LiteralSt14default_deleteIS0_EED1Ev, symObjAddr: 0x2B80, symBinAddr: 0x10000C1E4, symSize: 0x68 }
  - { offsetInCU: 0x100F1, offset: 0x2F37E, size: 0x8, addend: 0x0, symName: __ZSt11make_uniqueI7LiteralJSt8optionalI5TokenEEENSt8__detail9_MakeUniqIT_E15__single_objectEDpOT0_, symObjAddr: 0x2AD8, symBinAddr: 0x10000C13C, symSize: 0xA8 }
  - { offsetInCU: 0x10191, offset: 0x2F41E, size: 0x8, addend: 0x0, symName: __ZNSt10unique_ptrI4ExprSt14default_deleteIS0_EEC1IS2_vEEDn, symObjAddr: 0x2A84, symBinAddr: 0x10000C110, symSize: 0x2C }
  - { offsetInCU: 0x10192, offset: 0x2F41F, size: 0x8, addend: 0x0, symName: __ZNSt6vectorISt10unique_ptrI4ExprSt14default_deleteIS1_EESaIS4_EE12emplace_backIJS4_EEERS4_DpOT_, symObjAddr: 0x29A0, symBinAddr: 0x10000C070, symSize: 0xA0 }
  - { offsetInCU: 0x101D2, offset: 0x2F45F, size: 0x8, addend: 0x0, symName: __ZSteqI4ExprSt14default_deleteIS0_EEbRKSt10unique_ptrIT_T0_EDn, symObjAddr: 0x2964, symBinAddr: 0x10000C048, symSize: 0x28 }
  - { offsetInCU: 0x10281, offset: 0x2F50E, size: 0x8, addend: 0x0, symName: __ZNSt6vectorISt10unique_ptrI4ExprSt14default_deleteIS1_EESaIS4_EED1Ev, symObjAddr: 0x2914, symBinAddr: 0x10000BFF8, symSize: 0x50 }
  - { offsetInCU: 0x102D2, offset: 0x2F55F, size: 0x8, addend: 0x0, symName: __ZNSt12_Vector_baseISt10unique_ptrI4ExprSt14default_deleteIS1_EESaIS4_EED2Ev, symObjAddr: 0x28C4, symBinAddr: 0x10000BFA8, symSize: 0x50 }
  - { offsetInCU: 0x10307, offset: 0x2F594, size: 0x8, addend: 0x0, symName: __ZNSaISt10unique_ptrI4ExprSt14default_deleteIS0_EEED2Ev, symObjAddr: 0x28A4, symBinAddr: 0x10000BF88, symSize: 0x20 }
  - { offsetInCU: 0x1036A, offset: 0x2F5F7, size: 0x8, addend: 0x0, symName: __ZNSt12_Vector_baseISt10unique_ptrI4ExprSt14default_deleteIS1_EESaIS4_EE12_Vector_implC1Ev, symObjAddr: 0x287C, symBinAddr: 0x10000BF60, symSize: 0x28 }
  - { offsetInCU: 0x10335, offset: 0x2F5C2, size: 0x8, addend: 0x0, symName: __ZSt8any_castINSt7__cxx1112basic_stringIcSt11char_traitsIcESaIcEEEET_OSt3any, symObjAddr: 0x2824, symBinAddr: 0x10000BF08, symSize: 0x58 }
  - { offsetInCU: 0x1037D, offset: 0x2F60A, size: 0x8, addend: 0x0, symName: __ZNSt8optionalI5TokenEptEv, symObjAddr: 0x2804, symBinAddr: 0x10000BEE8, symSize: 0x20 }
  - { offsetInCU: 0x103A7, offset: 0x2F634, size: 0x8, addend: 0x0, symName: __ZNKSt8optionalI5TokenE9has_valueEv, symObjAddr: 0x27E8, symBinAddr: 0x10000BECC, symSize: 0x1C }
  - { offsetInCU: 0x103D1, offset: 0x2F65E, size: 0x8, addend: 0x0, symName: __ZNOSt8optionalI5TokenE5valueEv, symObjAddr: 0x27B0, symBinAddr: 0x10000BE94, symSize: 0x38 }
  - { offsetInCU: 0x103FB, offset: 0x2F688, size: 0x8, addend: 0x0, symName: __ZNSt6vectorISt8optionalI5TokenESaIS2_EEixEm, symObjAddr: 0x26E4, symBinAddr: 0x10000BE6C, symSize: 0x28 }
  - { offsetInCU: 0x10436, offset: 0x2F6C3, size: 0x8, addend: 0x0, symName: __ZNSt6vectorISt8optionalI5TokenESaIS2_EEaSERKS4_, symObjAddr: 0x2290, symBinAddr: 0x10000BB54, symSize: 0x318 }
  - { offsetInCU: 0x104B2, offset: 0x2F73F, size: 0x8, addend: 0x0, symName: __ZN9__gnu_cxx14__alloc_traitsISaISt8optionalI5TokenEES3_E15_S_always_equalEv, symObjAddr: 0x2288, symBinAddr: 0x10000BB4C, symSize: 0x8 }
  - { offsetInCU: 0x104CA, offset: 0x2F757, size: 0x8, addend: 0x0, symName: __ZN9__gnu_cxx14__alloc_traitsISaISt8optionalI5TokenEES3_E27_S_propagate_on_copy_assignEv, symObjAddr: 0x2280, symBinAddr: 0x10000BB44, symSize: 0x8 }
  - { offsetInCU: 0x104E7, offset: 0x2F774, size: 0x8, addend: 0x0, symName: __ZN6Parser9parseTermEv, symObjAddr: 0x1F1C, symBinAddr: 0x10000B9A4, symSize: 0x1A0 }
  - { offsetInCU: 0x10567, offset: 0x2F7F4, size: 0x8, addend: 0x0, symName: __ZN7LiteralD1Ev, symObjAddr: 0x1ED8, symBinAddr: 0x10000B960, symSize: 0x44 }
  - { offsetInCU: 0x10583, offset: 0x2F810, size: 0x8, addend: 0x0, symName: __ZN6Parser10parseParenEv, symObjAddr: 0x1D48, symBinAddr: 0x10000B7D0, symSize: 0x190 }
  - { offsetInCU: 0x105C8, offset: 0x2F855, size: 0x8, addend: 0x0, symName: __ZN6Parser9parseFactEv, symObjAddr: 0x1BC0, symBinAddr: 0x10000B648, symSize: 0x188 }
  - { offsetInCU: 0x10663, offset: 0x2F8F0, size: 0x8, addend: 0x0, symName: __ZN10BinaryExprD1Ev, symObjAddr: 0x1B70, symBinAddr: 0x10000B5F8, symSize: 0x50 }
  - { offsetInCU: 0x1067B, offset: 0x2F908, size: 0x8, addend: 0x0, symName: __ZN6Parser12parseVarDeclEv, symObjAddr: 0x1A14, symBinAddr: 0x10000B49C, symSize: 0x15C }
  - { offsetInCU: 0x106CA, offset: 0x2F957, size: 0x8, addend: 0x0, symName: __ZN6Parser14parseUnaryExprEv, symObjAddr: 0x1860, symBinAddr: 0x10000B2E8, symSize: 0x1B4 }
  - { offsetInCU: 0x10719, offset: 0x2F9A6, size: 0x8, addend: 0x0, symName: __ZN6Parser15parseBinaryExprEv, symObjAddr: 0x1720, symBinAddr: 0x10000B1A8, symSize: 0x140 }
  - { offsetInCU: 0x1077F, offset: 0x2FA0C, size: 0x8, addend: 0x0, symName: __ZN6Parser9parseExprEv, symObjAddr: 0x1484, symBinAddr: 0x10000AF0C, symSize: 0x29C }
  - { offsetInCU: 0x1080D, offset: 0x2FA9A, size: 0x8, addend: 0x0, symName: __ZNSt10unique_ptrI4ExprSt14default_deleteIS0_EEC1EOS3_, symObjAddr: 0x145C, symBinAddr: 0x10000AEE4, symSize: 0x28 }
  - { offsetInCU: 0x10868, offset: 0x2FAF5, size: 0x8, addend: 0x0, symName: __ZNSt15__uniq_ptr_dataI4ExprSt14default_deleteIS0_ELb1ELb1EEC1EOS3_, symObjAddr: 0x1434, symBinAddr: 0x10000AEBC, symSize: 0x28 }
  - { offsetInCU: 0x10859, offset: 0x2FAE6, size: 0x8, addend: 0x0, symName: __ZN6Parser12parseProgramEv, symObjAddr: 0x122C, symBinAddr: 0x10000ADDC, symSize: 0xE0 }
  - { offsetInCU: 0x10906, offset: 0x2FB93, size: 0x8, addend: 0x0, symName: __ZNSt6vectorISt10unique_ptrI4ExprSt14default_deleteIS1_EESaIS4_EEC1Ev, symObjAddr: 0x120C, symBinAddr: 0x10000ADBC, symSize: 0x20 }
  - { offsetInCU: 0x1094D, offset: 0x2FBDA, size: 0x8, addend: 0x0, symName: __ZNSt12_Vector_baseISt10unique_ptrI4ExprSt14default_deleteIS1_EESaIS4_EEC2Ev, symObjAddr: 0x11EC, symBinAddr: 0x10000AD9C, symSize: 0x20 }
  - { offsetInCU: 0x109A8, offset: 0x2FC35, size: 0x8, addend: 0x0, symName: __ZNSt12_Vector_baseISt10unique_ptrI4ExprSt14default_deleteIS1_EESaIS4_EE12_Vector_implD1Ev, symObjAddr: 0x11CC, symBinAddr: 0x10000AD7C, symSize: 0x20 }
  - { offsetInCU: 0x10979, offset: 0x2FC06, size: 0x8, addend: 0x0, symName: __ZN6Parser12currentTokenEv, symObjAddr: 0x1180, symBinAddr: 0x10000AD30, symSize: 0x4C }
  - { offsetInCU: 0x109A5, offset: 0x2FC32, size: 0x8, addend: 0x0, symName: __ZN6Parser8isStringEv, symObjAddr: 0x1094, symBinAddr: 0x10000AC44, symSize: 0xEC }
  - { offsetInCU: 0x109D2, offset: 0x2FC5F, size: 0x8, addend: 0x0, symName: __ZN6Parser6isTermEv, symObjAddr: 0x1024, symBinAddr: 0x10000ABD4, symSize: 0x70 }
  - { offsetInCU: 0x109FE, offset: 0x2FC8B, size: 0x8, addend: 0x0, symName: __ZN6Parser9isVarDeclEv, symObjAddr: 0xD08, symBinAddr: 0x10000A8B8, symSize: 0x31C }
  - { offsetInCU: 0x10A2B, offset: 0x2FCB8, size: 0x8, addend: 0x0, symName: __ZN6Parser9isNewlineEv, symObjAddr: 0xCA0, symBinAddr: 0x10000A850, symSize: 0x68 }
  - { offsetInCU: 0x10A57, offset: 0x2FCE4, size: 0x8, addend: 0x0, symName: __ZN6Parser9isUnaryOpEv, symObjAddr: 0xB10, symBinAddr: 0x10000A6C0, symSize: 0x190 }
  - { offsetInCU: 0x10A84, offset: 0x2FD11, size: 0x8, addend: 0x0, symName: __ZN6Parser10isBinaryOpEv, symObjAddr: 0x8D4, symBinAddr: 0x10000A484, symSize: 0x23C }
  - { offsetInCU: 0x10AB1, offset: 0x2FD3E, size: 0x8, addend: 0x0, symName: __ZN6Parser13consumeParensEv, symObjAddr: 0x84C, symBinAddr: 0x10000A3FC, symSize: 0x88 }
  - { offsetInCU: 0x10ADE, offset: 0x2FD6B, size: 0x8, addend: 0x0, symName: __ZN6Parser4peekEi, symObjAddr: 0x7C4, symBinAddr: 0x10000A374, symSize: 0x88 }
  - { offsetInCU: 0x10B19, offset: 0x2FDA6, size: 0x8, addend: 0x0, symName: __ZN6Parser7consumeEv, symObjAddr: 0x74C, symBinAddr: 0x10000A2FC, symSize: 0x78 }
  - { offsetInCU: 0x10B45, offset: 0x2FDD2, size: 0x8, addend: 0x0, symName: __ZN6Parser7isAtEndEv, symObjAddr: 0x6B4, symBinAddr: 0x10000A2CC, symSize: 0x30 }
  - { offsetInCU: 0x10B71, offset: 0x2FDFE, size: 0x8, addend: 0x0, symName: __ZN6Parser12hasNextTokenEv, symObjAddr: 0x684, symBinAddr: 0x10000A29C, symSize: 0x30 }
  - { offsetInCU: 0x10BCC, offset: 0x2FE59, size: 0x8, addend: 0x0, symName: __ZN6ParserD1Ev, symObjAddr: 0x664, symBinAddr: 0x10000A27C, symSize: 0x20 }
  - { offsetInCU: 0x10BF6, offset: 0x2FE83, size: 0x8, addend: 0x0, symName: __ZN6ParserD2Ev, symObjAddr: 0x644, symBinAddr: 0x10000A25C, symSize: 0x20 }
  - { offsetInCU: 0x10C69, offset: 0x2FEF6, size: 0x8, addend: 0x0, symName: __ZN6ParserC1ESt6vectorISt8optionalI5TokenESaIS3_EE, symObjAddr: 0x5DC, symBinAddr: 0x10000A1F4, symSize: 0x68 }
  - { offsetInCU: 0x10C9D, offset: 0x2FF2A, size: 0x8, addend: 0x0, symName: __ZN6ParserC2ESt6vectorISt8optionalI5TokenESaIS3_EE, symObjAddr: 0x574, symBinAddr: 0x10000A18C, symSize: 0x68 }
  - { offsetInCU: 0x5D61, offset: 0x35C84, size: 0x8, addend: 0x0, symName: __ZN15ParserExceptionC1ENSt7__cxx1112basic_stringIcSt11char_traitsIcESaIcEEE, symObjAddr: 0xA4, symBinAddr: 0x10000F1B0, symSize: 0x7C }
  - { offsetInCU: 0x5D95, offset: 0x35CB8, size: 0x8, addend: 0x0, symName: __ZN15ParserExceptionC2ENSt7__cxx1112basic_stringIcSt11char_traitsIcESaIcEEE, symObjAddr: 0x28, symBinAddr: 0x10000F134, symSize: 0x7C }
  - { offsetInCU: 0x7386, offset: 0x3D01E, size: 0x8, addend: 0x0, symName: __ZNSt10_Head_baseILm0ERKNSt7__cxx1112basic_stringIcSt11char_traitsIcESaIcEEELb0EE7_M_headERS8_, symObjAddr: 0x2498, symBinAddr: 0x100011274, symSize: 0x18 }
  - { offsetInCU: 0x73AE, offset: 0x3D046, size: 0x8, addend: 0x0, symName: __ZNSt11_Tuple_implILm0EJRKNSt7__cxx1112basic_stringIcSt11char_traitsIcESaIcEEEEE7_M_headERS8_, symObjAddr: 0x247C, symBinAddr: 0x100011258, symSize: 0x1C }
  - { offsetInCU: 0x73D8, offset: 0x3D070, size: 0x8, addend: 0x0, symName: __ZSt12__get_helperILm0ERKNSt7__cxx1112basic_stringIcSt11char_traitsIcESaIcEEEJEERT0_RSt11_Tuple_implIXT_EJS8_DpT1_EE, symObjAddr: 0x2460, symBinAddr: 0x10001123C, symSize: 0x1C }
  - { offsetInCU: 0x7420, offset: 0x3D0B8, size: 0x8, addend: 0x0, symName: __ZSt7forwardIRKNSt7__cxx1112basic_stringIcSt11char_traitsIcESaIcEEEEOT_RNSt16remove_referenceIS8_E4typeE, symObjAddr: 0x244C, symBinAddr: 0x100011228, symSize: 0x14 }
  - { offsetInCU: 0x7451, offset: 0x3D0E9, size: 0x8, addend: 0x0, symName: __ZSt3getILm0EJRKNSt7__cxx1112basic_stringIcSt11char_traitsIcESaIcEEEEERNSt13tuple_elementIXT_ESt5tupleIJDpT0_EEE4typeERSC_, symObjAddr: 0x2430, symBinAddr: 0x10001120C, symSize: 0x1C }
  - { offsetInCU: 0x75C4, offset: 0x3D25C, size: 0x8, addend: 0x0, symName: __ZNSt4pairIKNSt7__cxx1112basic_stringIcSt11char_traitsIcESaIcEEESt10unique_ptrI4ExprSt14default_deleteIS8_EEEC1IJRS6_EJLm0EEJEJEEERSt5tupleIJDpT_EERSF_IJDpT1_EESt12_Index_tupleIJXspT0_EEESO_IJXspT2_EEE, symObjAddr: 0x23D8, symBinAddr: 0x1000111B4, symSize: 0x58 }
  - { offsetInCU: 0x7669, offset: 0x3D301, size: 0x8, addend: 0x0, symName: __ZNSt4pairIKNSt7__cxx1112basic_stringIcSt11char_traitsIcESaIcEEESt10unique_ptrI4ExprSt14default_deleteIS8_EEEC1IJRS6_EJEEESt21piecewise_construct_tSt5tupleIJDpT_EESG_IJDpT0_EE, symObjAddr: 0x239C, symBinAddr: 0x100011178, symSize: 0x3C }
  - { offsetInCU: 0x768B, offset: 0x3D323, size: 0x8, addend: 0x0, symName: __ZNSt11_Tuple_implILm0EJRKNSt7__cxx1112basic_stringIcSt11char_traitsIcESaIcEEEEEC2EOS8_, symObjAddr: 0x2374, symBinAddr: 0x100011150, symSize: 0x28 }
  - { offsetInCU: 0x7666, offset: 0x3D2FE, size: 0x8, addend: 0x0, symName: __ZNKSt15__new_allocatorISt13_Rb_tree_nodeISt4pairIKNSt7__cxx1112basic_stringIcSt11char_traitsIcESaIcEEESt10unique_ptrI4ExprSt14default_deleteISA_EEEEE11_M_max_sizeEv, symObjAddr: 0x2354, symBinAddr: 0x100011130, symSize: 0x20 }
  - { offsetInCU: 0x7695, offset: 0x3D32D, size: 0x8, addend: 0x0, symName: __ZNK9__gnu_cxx16__aligned_membufISt4pairIKNSt7__cxx1112basic_stringIcSt11char_traitsIcESaIcEEESt10unique_ptrI4ExprSt14default_deleteISA_EEEE7_M_addrEv, symObjAddr: 0x2340, symBinAddr: 0x10001111C, symSize: 0x14 }
  - { offsetInCU: 0x76CA, offset: 0x3D362, size: 0x8, addend: 0x0, symName: __ZNSt15__new_allocatorISt13_Rb_tree_nodeISt4pairIKNSt7__cxx1112basic_stringIcSt11char_traitsIcESaIcEEESt10unique_ptrI4ExprSt14default_deleteISA_EEEEE9constructISE_JRKSt21piecewise_construct_tSt5tupleIJRS8_EESL_IJEEEEEvPT_DpOT0_, symObjAddr: 0x228C, symBinAddr: 0x100011068, symSize: 0xB4 }
  - { offsetInCU: 0x77AA, offset: 0x3D442, size: 0x8, addend: 0x0, symName: __ZNSt5tupleIJRKNSt7__cxx1112basic_stringIcSt11char_traitsIcESaIcEEEEEC1EOS8_, symObjAddr: 0x2264, symBinAddr: 0x100011040, symSize: 0x28 }
  - { offsetInCU: 0x7790, offset: 0x3D428, size: 0x8, addend: 0x0, symName: __ZNSt15__new_allocatorISt13_Rb_tree_nodeISt4pairIKNSt7__cxx1112basic_stringIcSt11char_traitsIcESaIcEEESt10unique_ptrI4ExprSt14default_deleteISA_EEEEE8allocateEmPKv, symObjAddr: 0x21D4, symBinAddr: 0x100010FB0, symSize: 0x90 }
  - { offsetInCU: 0x77E2, offset: 0x3D47A, size: 0x8, addend: 0x0, symName: __ZNK9__gnu_cxx16__aligned_membufISt4pairIKNSt7__cxx1112basic_stringIcSt11char_traitsIcESaIcEEESt10unique_ptrI4ExprSt14default_deleteISA_EEEE6_M_ptrEv, symObjAddr: 0x21A4, symBinAddr: 0x100010F94, symSize: 0x1C }
  - { offsetInCU: 0x780E, offset: 0x3D4A6, size: 0x8, addend: 0x0, symName: __ZSt7forwardIRPSt13_Rb_tree_nodeISt4pairIKNSt7__cxx1112basic_stringIcSt11char_traitsIcESaIcEEESt10unique_ptrI4ExprSt14default_deleteISA_EEEEEOT_RNSt16remove_referenceISI_E4typeE, symObjAddr: 0x2190, symBinAddr: 0x100010F80, symSize: 0x14 }
  - { offsetInCU: 0x783F, offset: 0x3D4D7, size: 0x8, addend: 0x0, symName: __ZNSt16allocator_traitsISaISt13_Rb_tree_nodeISt4pairIKNSt7__cxx1112basic_stringIcSt11char_traitsIcESaIcEEESt10unique_ptrI4ExprSt14default_deleteISA_EEEEEE9constructISE_JRKSt21piecewise_construct_tSt5tupleIJRS8_EESM_IJEEEEEvRSG_PT_DpOT0_, symObjAddr: 0x2128, symBinAddr: 0x100010F18, symSize: 0x68 }
  - { offsetInCU: 0x78BA, offset: 0x3D552, size: 0x8, addend: 0x0, symName: __ZNSt16allocator_traitsISaISt13_Rb_tree_nodeISt4pairIKNSt7__cxx1112basic_stringIcSt11char_traitsIcESaIcEEESt10unique_ptrI4ExprSt14default_deleteISA_EEEEEE8allocateERSG_m, symObjAddr: 0x2100, symBinAddr: 0x100010EF0, symSize: 0x28 }
  - { offsetInCU: 0x78F9, offset: 0x3D591, size: 0x8, addend: 0x0, symName: __ZNSt15__new_allocatorISt13_Rb_tree_nodeISt4pairIKNSt7__cxx1112basic_stringIcSt11char_traitsIcESaIcEEESt10unique_ptrI4ExprSt14default_deleteISA_EEEEE10deallocateEPSF_m, symObjAddr: 0x20C4, symBinAddr: 0x100010EB4, symSize: 0x3C }
  - { offsetInCU: 0x7941, offset: 0x3D5D9, size: 0x8, addend: 0x0, symName: __ZNSt15__new_allocatorISt13_Rb_tree_nodeISt4pairIKNSt7__cxx1112basic_stringIcSt11char_traitsIcESaIcEEESt10unique_ptrI4ExprSt14default_deleteISA_EEEEE7destroyISE_EEvPT_, symObjAddr: 0x20A0, symBinAddr: 0x100010E90, symSize: 0x24 }
  - { offsetInCU: 0x7A18, offset: 0x3D6B0, size: 0x8, addend: 0x0, symName: __ZNSt4pairIKNSt7__cxx1112basic_stringIcSt11char_traitsIcESaIcEEESt10unique_ptrI4ExprSt14default_deleteIS8_EEED1Ev, symObjAddr: 0x2074, symBinAddr: 0x100010E64, symSize: 0x2C }
  - { offsetInCU: 0x79D2, offset: 0x3D66A, size: 0x8, addend: 0x0, symName: __ZSt7forwardISt17_Rb_tree_iteratorISt4pairIKNSt7__cxx1112basic_stringIcSt11char_traitsIcESaIcEEESt10unique_ptrI4ExprSt14default_deleteISA_EEEEEOT_RNSt16remove_referenceISG_E4typeE, symObjAddr: 0x204C, symBinAddr: 0x100010E50, symSize: 0x14 }
  - { offsetInCU: 0x7A07, offset: 0x3D69F, size: 0x8, addend: 0x0, symName: __ZNKSt10_Select1stISt4pairIKNSt7__cxx1112basic_stringIcSt11char_traitsIcESaIcEEESt10unique_ptrI4ExprSt14default_deleteIS9_EEEEclERKSD_, symObjAddr: 0x2018, symBinAddr: 0x100010E38, symSize: 0x18 }
  - { offsetInCU: 0x7A42, offset: 0x3D6DA, size: 0x8, addend: 0x0, symName: __ZNKSt13_Rb_tree_nodeISt4pairIKNSt7__cxx1112basic_stringIcSt11char_traitsIcESaIcEEESt10unique_ptrI4ExprSt14default_deleteIS9_EEEE9_M_valptrEv, symObjAddr: 0x1FF8, symBinAddr: 0x100010E18, symSize: 0x20 }
  - { offsetInCU: 0x7A6E, offset: 0x3D706, size: 0x8, addend: 0x0, symName: __ZSt7forwardIRPSt18_Rb_tree_node_baseEOT_RNSt16remove_referenceIS3_E4typeE, symObjAddr: 0x1FE4, symBinAddr: 0x100010E04, symSize: 0x14 }
  - { offsetInCU: 0x7B9C, offset: 0x3D834, size: 0x8, addend: 0x0, symName: __ZNSt4pairIPSt18_Rb_tree_node_baseS1_EC1IRPSt13_Rb_tree_nodeIS_IKNSt7__cxx1112basic_stringIcSt11char_traitsIcESaIcEEESt10unique_ptrI4ExprSt14default_deleteISD_EEEERS1_Lb1EEEOT_OT0_, symObjAddr: 0x1F9C, symBinAddr: 0x100010DBC, symSize: 0x48 }
  - { offsetInCU: 0x7B35, offset: 0x3D7CD, size: 0x8, addend: 0x0, symName: __ZNSt8_Rb_treeINSt7__cxx1112basic_stringIcSt11char_traitsIcESaIcEEESt4pairIKS5_St10unique_ptrI4ExprSt14default_deleteIS9_EEESt10_Select1stISD_ESt4lessIS5_ESaISD_EE17_M_construct_nodeIJRKSt21piecewise_construct_tSt5tupleIJRS7_EESO_IJEEEEEvPSt13_Rb_tree_nodeISD_EDpOT_, symObjAddr: 0x1EE0, symBinAddr: 0x100010D00, symSize: 0xBC }
  - { offsetInCU: 0x7BA7, offset: 0x3D83F, size: 0x8, addend: 0x0, symName: __ZNSt8_Rb_treeINSt7__cxx1112basic_stringIcSt11char_traitsIcESaIcEEESt4pairIKS5_St10unique_ptrI4ExprSt14default_deleteIS9_EEESt10_Select1stISD_ESt4lessIS5_ESaISD_EE11_M_get_nodeEv, symObjAddr: 0x1EBC, symBinAddr: 0x100010CDC, symSize: 0x24 }
  - { offsetInCU: 0x7BD6, offset: 0x3D86E, size: 0x8, addend: 0x0, symName: __ZN9__gnu_cxx16__aligned_membufISt4pairIKNSt7__cxx1112basic_stringIcSt11char_traitsIcESaIcEEESt10unique_ptrI4ExprSt14default_deleteISA_EEEE7_M_addrEv, symObjAddr: 0x1EA8, symBinAddr: 0x100010CC8, symSize: 0x14 }
  - { offsetInCU: 0x7BFB, offset: 0x3D893, size: 0x8, addend: 0x0, symName: __ZNSt16allocator_traitsISaISt13_Rb_tree_nodeISt4pairIKNSt7__cxx1112basic_stringIcSt11char_traitsIcESaIcEEESt10unique_ptrI4ExprSt14default_deleteISA_EEEEEE10deallocateERSG_PSF_m, symObjAddr: 0x1E78, symBinAddr: 0x100010C98, symSize: 0x30 }
  - { offsetInCU: 0x7C47, offset: 0x3D8DF, size: 0x8, addend: 0x0, symName: __ZNSt16allocator_traitsISaISt13_Rb_tree_nodeISt4pairIKNSt7__cxx1112basic_stringIcSt11char_traitsIcESaIcEEESt10unique_ptrI4ExprSt14default_deleteISA_EEEEEE7destroyISE_EEvRSG_PT_, symObjAddr: 0x1E50, symBinAddr: 0x100010C70, symSize: 0x28 }
  - { offsetInCU: 0x7C8F, offset: 0x3D927, size: 0x8, addend: 0x0, symName: __ZNSt8_Rb_treeINSt7__cxx1112basic_stringIcSt11char_traitsIcESaIcEEESt4pairIKS5_St10unique_ptrI4ExprSt14default_deleteIS9_EEESt10_Select1stISD_ESt4lessIS5_ESaISD_EE12_M_erase_auxESt23_Rb_tree_const_iteratorISD_E, symObjAddr: 0x1DC8, symBinAddr: 0x100010C18, symSize: 0x58 }
  - { offsetInCU: 0x7CDB, offset: 0x3D973, size: 0x8, addend: 0x0, symName: __ZNSt23_Rb_tree_const_iteratorISt4pairIKNSt7__cxx1112basic_stringIcSt11char_traitsIcESaIcEEESt10unique_ptrI4ExprSt14default_deleteIS9_EEEEppEi, symObjAddr: 0x1D88, symBinAddr: 0x100010BD8, symSize: 0x40 }
  - { offsetInCU: 0x7D21, offset: 0x3D9B9, size: 0x8, addend: 0x0, symName: __ZStneRKSt23_Rb_tree_const_iteratorISt4pairIKNSt7__cxx1112basic_stringIcSt11char_traitsIcESaIcEEESt10unique_ptrI4ExprSt14default_deleteIS9_EEEESG_, symObjAddr: 0x1D58, symBinAddr: 0x100010BA8, symSize: 0x30 }
  - { offsetInCU: 0x7D5C, offset: 0x3D9F4, size: 0x8, addend: 0x0, symName: __ZSteqRKSt23_Rb_tree_const_iteratorISt4pairIKNSt7__cxx1112basic_stringIcSt11char_traitsIcESaIcEEESt10unique_ptrI4ExprSt14default_deleteIS9_EEEESG_, symObjAddr: 0x1D28, symBinAddr: 0x100010B78, symSize: 0x30 }
  - { offsetInCU: 0x7D9B, offset: 0x3DA33, size: 0x8, addend: 0x0, symName: __ZNSt8_Rb_treeINSt7__cxx1112basic_stringIcSt11char_traitsIcESaIcEEESt4pairIKS5_St10unique_ptrI4ExprSt14default_deleteIS9_EEESt10_Select1stISD_ESt4lessIS5_ESaISD_EE5beginEv, symObjAddr: 0x1D00, symBinAddr: 0x100010B50, symSize: 0x28 }
  - { offsetInCU: 0x7EAB, offset: 0x3DB43, size: 0x8, addend: 0x0, symName: __ZNSt4pairISt17_Rb_tree_iteratorIS_IKNSt7__cxx1112basic_stringIcSt11char_traitsIcESaIcEEESt10unique_ptrI4ExprSt14default_deleteIS9_EEEESE_EC1ISE_SE_Lb1EEEOT_OT0_, symObjAddr: 0x1CB0, symBinAddr: 0x100010B00, symSize: 0x50 }
  - { offsetInCU: 0x7E57, offset: 0x3DAEF, size: 0x8, addend: 0x0, symName: __ZNSt8_Rb_treeINSt7__cxx1112basic_stringIcSt11char_traitsIcESaIcEEESt4pairIKS5_St10unique_ptrI4ExprSt14default_deleteIS9_EEESt10_Select1stISD_ESt4lessIS5_ESaISD_EE14_M_upper_boundEPSt13_Rb_tree_nodeISD_EPSt18_Rb_tree_node_baseRS7_, symObjAddr: 0x1C20, symBinAddr: 0x100010A70, symSize: 0x90 }
  - { offsetInCU: 0x7EB4, offset: 0x3DB4C, size: 0x8, addend: 0x0, symName: __ZNSt8_Rb_treeINSt7__cxx1112basic_stringIcSt11char_traitsIcESaIcEEESt4pairIKS5_St10unique_ptrI4ExprSt14default_deleteIS9_EEESt10_Select1stISD_ESt4lessIS5_ESaISD_EE14_M_insert_nodeEPSt18_Rb_tree_node_baseSL_PSt13_Rb_tree_nodeISD_E, symObjAddr: 0x1B38, symBinAddr: 0x1000109A4, symSize: 0xCC }
  - { offsetInCU: 0x7F1E, offset: 0x3DBB6, size: 0x8, addend: 0x0, symName: __ZNSt8_Rb_treeINSt7__cxx1112basic_stringIcSt11char_traitsIcESaIcEEESt4pairIKS5_St10unique_ptrI4ExprSt14default_deleteIS9_EEESt10_Select1stISD_ESt4lessIS5_ESaISD_EE6_S_keyEPKSt13_Rb_tree_nodeISD_E, symObjAddr: 0x1B10, symBinAddr: 0x10001097C, symSize: 0x28 }
  - { offsetInCU: 0x7F4C, offset: 0x3DBE4, size: 0x8, addend: 0x0, symName: __ZNSt17_Rb_tree_iteratorISt4pairIKNSt7__cxx1112basic_stringIcSt11char_traitsIcESaIcEEESt10unique_ptrI4ExprSt14default_deleteIS9_EEEEppEv, symObjAddr: 0x1AE0, symBinAddr: 0x10001094C, symSize: 0x30 }
  - { offsetInCU: 0x7F76, offset: 0x3DC0E, size: 0x8, addend: 0x0, symName: __ZNSt17_Rb_tree_iteratorISt4pairIKNSt7__cxx1112basic_stringIcSt11char_traitsIcESaIcEEESt10unique_ptrI4ExprSt14default_deleteIS9_EEEEmmEv, symObjAddr: 0x1AB0, symBinAddr: 0x10001091C, symSize: 0x30 }
  - { offsetInCU: 0x8022, offset: 0x3DCBA, size: 0x8, addend: 0x0, symName: __ZNSt4pairIPSt18_Rb_tree_node_baseS1_EC1IRS1_S4_Lb1EEEOT_OT0_, symObjAddr: 0x1A68, symBinAddr: 0x1000108D4, symSize: 0x48 }
  - { offsetInCU: 0x8032, offset: 0x3DCCA, size: 0x8, addend: 0x0, symName: __ZNSt8_Rb_treeINSt7__cxx1112basic_stringIcSt11char_traitsIcESaIcEEESt4pairIKS5_St10unique_ptrI4ExprSt14default_deleteIS9_EEESt10_Select1stISD_ESt4lessIS5_ESaISD_EE11_M_leftmostEv, symObjAddr: 0x1A50, symBinAddr: 0x1000108BC, symSize: 0x18 }
  - { offsetInCU: 0x805C, offset: 0x3DCF4, size: 0x8, addend: 0x0, symName: __ZNSt8_Rb_treeINSt7__cxx1112basic_stringIcSt11char_traitsIcESaIcEEESt4pairIKS5_St10unique_ptrI4ExprSt14default_deleteIS9_EEESt10_Select1stISD_ESt4lessIS5_ESaISD_EE24_M_get_insert_unique_posERS7_, symObjAddr: 0x1908, symBinAddr: 0x100010774, symSize: 0x148 }
  - { offsetInCU: 0x8162, offset: 0x3DDFA, size: 0x8, addend: 0x0, symName: __ZNSt4pairIPSt18_Rb_tree_node_baseS1_EC1IS1_S1_Lb1EEERKS1_S5_, symObjAddr: 0x18CC, symBinAddr: 0x100010738, symSize: 0x3C }
  - { offsetInCU: 0x8172, offset: 0x3DE0A, size: 0x8, addend: 0x0, symName: __ZNSt8_Rb_treeINSt7__cxx1112basic_stringIcSt11char_traitsIcESaIcEEESt4pairIKS5_St10unique_ptrI4ExprSt14default_deleteIS9_EEESt10_Select1stISD_ESt4lessIS5_ESaISD_EE12_M_rightmostEv, symObjAddr: 0x18B4, symBinAddr: 0x100010720, symSize: 0x18 }
  - { offsetInCU: 0x819C, offset: 0x3DE34, size: 0x8, addend: 0x0, symName: __ZNKSt23_Rb_tree_const_iteratorISt4pairIKNSt7__cxx1112basic_stringIcSt11char_traitsIcESaIcEEESt10unique_ptrI4ExprSt14default_deleteIS9_EEEE13_M_const_castEv, symObjAddr: 0x188C, symBinAddr: 0x1000106F8, symSize: 0x28 }
  - { offsetInCU: 0x81C6, offset: 0x3DE5E, size: 0x8, addend: 0x0, symName: __ZNSt8_Rb_treeINSt7__cxx1112basic_stringIcSt11char_traitsIcESaIcEEESt4pairIKS5_St10unique_ptrI4ExprSt14default_deleteIS9_EEESt10_Select1stISD_ESt4lessIS5_ESaISD_EE14_M_create_nodeIJRKSt21piecewise_construct_tSt5tupleIJRS7_EESO_IJEEEEEPSt13_Rb_tree_nodeISD_EDpOT_, symObjAddr: 0x181C, symBinAddr: 0x100010688, symSize: 0x70 }
  - { offsetInCU: 0x82B3, offset: 0x3DF4B, size: 0x8, addend: 0x0, symName: __ZNSt10_Head_baseILm0ERKNSt7__cxx1112basic_stringIcSt11char_traitsIcESaIcEEELb0EEC2ES7_, symObjAddr: 0x17F8, symBinAddr: 0x100010664, symSize: 0x24 }
  - { offsetInCU: 0x828E, offset: 0x3DF26, size: 0x8, addend: 0x0, symName: __ZN9__gnu_cxx16__aligned_membufISt4pairIKNSt7__cxx1112basic_stringIcSt11char_traitsIcESaIcEEESt10unique_ptrI4ExprSt14default_deleteISA_EEEE6_M_ptrEv, symObjAddr: 0x17DC, symBinAddr: 0x100010648, symSize: 0x1C }
  - { offsetInCU: 0x82BA, offset: 0x3DF52, size: 0x8, addend: 0x0, symName: __ZSt4moveIRSaISt13_Rb_tree_nodeISt4pairIKNSt7__cxx1112basic_stringIcSt11char_traitsIcESaIcEEESt10unique_ptrI4ExprSt14default_deleteISA_EEEEEEONSt16remove_referenceIT_E4typeEOSJ_, symObjAddr: 0x17C8, symBinAddr: 0x100010634, symSize: 0x14 }
  - { offsetInCU: 0x82EF, offset: 0x3DF87, size: 0x8, addend: 0x0, symName: __ZNSt8_Rb_treeINSt7__cxx1112basic_stringIcSt11char_traitsIcESaIcEEESt4pairIKS5_St10unique_ptrI4ExprSt14default_deleteIS9_EEESt10_Select1stISD_ESt4lessIS5_ESaISD_EE11_M_put_nodeEPSt13_Rb_tree_nodeISD_E, symObjAddr: 0x1798, symBinAddr: 0x100010604, symSize: 0x30 }
  - { offsetInCU: 0x832A, offset: 0x3DFC2, size: 0x8, addend: 0x0, symName: __ZNSt8_Rb_treeINSt7__cxx1112basic_stringIcSt11char_traitsIcESaIcEEESt4pairIKS5_St10unique_ptrI4ExprSt14default_deleteIS9_EEESt10_Select1stISD_ESt4lessIS5_ESaISD_EE15_M_destroy_nodeEPSt13_Rb_tree_nodeISD_E, symObjAddr: 0x1754, symBinAddr: 0x1000105C0, symSize: 0x44 }
  - { offsetInCU: 0x8365, offset: 0x3DFFD, size: 0x8, addend: 0x0, symName: __ZNSt8_Rb_treeINSt7__cxx1112basic_stringIcSt11char_traitsIcESaIcEEESt4pairIKS5_St10unique_ptrI4ExprSt14default_deleteIS9_EEESt10_Select1stISD_ESt4lessIS5_ESaISD_EE12_M_erase_auxESt23_Rb_tree_const_iteratorISD_ESL_, symObjAddr: 0x1638, symBinAddr: 0x1000104FC, symSize: 0xC4 }
  - { offsetInCU: 0x83B1, offset: 0x3E049, size: 0x8, addend: 0x0, symName: __ZNKSt8_Rb_treeINSt7__cxx1112basic_stringIcSt11char_traitsIcESaIcEEESt4pairIKS5_St10unique_ptrI4ExprSt14default_deleteIS9_EEESt10_Select1stISD_ESt4lessIS5_ESaISD_EE4sizeEv, symObjAddr: 0x1620, symBinAddr: 0x1000104E4, symSize: 0x18 }
  - { offsetInCU: 0x83DB, offset: 0x3E073, size: 0x8, addend: 0x0, symName: __ZNSt8_Rb_treeINSt7__cxx1112basic_stringIcSt11char_traitsIcESaIcEEESt4pairIKS5_St10unique_ptrI4ExprSt14default_deleteIS9_EEESt10_Select1stISD_ESt4lessIS5_ESaISD_EE11equal_rangeERS7_, symObjAddr: 0x14C4, symBinAddr: 0x100010388, symSize: 0x15C }
  - { offsetInCU: 0x846B, offset: 0x3E103, size: 0x8, addend: 0x0, symName: __ZNSt8_Rb_treeINSt7__cxx1112basic_stringIcSt11char_traitsIcESaIcEEESt4pairIKS5_St10unique_ptrI4ExprSt14default_deleteIS9_EEESt10_Select1stISD_ESt4lessIS5_ESaISD_EE6_S_keyEPKSt18_Rb_tree_node_base, symObjAddr: 0x14A8, symBinAddr: 0x10001036C, symSize: 0x1C }
  - { offsetInCU: 0x8499, offset: 0x3E131, size: 0x8, addend: 0x0, symName: __ZNSt8_Rb_treeINSt7__cxx1112basic_stringIcSt11char_traitsIcESaIcEEESt4pairIKS5_St10unique_ptrI4ExprSt14default_deleteIS9_EEESt10_Select1stISD_ESt4lessIS5_ESaISD_EE14_M_lower_boundEPSt13_Rb_tree_nodeISD_EPSt18_Rb_tree_node_baseRS7_, symObjAddr: 0x1410, symBinAddr: 0x1000102D4, symSize: 0x98 }
  - { offsetInCU: 0x84F6, offset: 0x3E18E, size: 0x8, addend: 0x0, symName: __ZNSt8_Rb_treeINSt7__cxx1112basic_stringIcSt11char_traitsIcESaIcEEESt4pairIKS5_St10unique_ptrI4ExprSt14default_deleteIS9_EEESt10_Select1stISD_ESt4lessIS5_ESaISD_EE6_M_endEv, symObjAddr: 0x13F8, symBinAddr: 0x1000102BC, symSize: 0x18 }
  - { offsetInCU: 0x85E3, offset: 0x3E27B, size: 0x8, addend: 0x0, symName: __ZNSt17_Rb_tree_iteratorISt4pairIKNSt7__cxx1112basic_stringIcSt11char_traitsIcESaIcEEESt10unique_ptrI4ExprSt14default_deleteIS9_EEEEC1EPSt18_Rb_tree_node_base, symObjAddr: 0x13B8, symBinAddr: 0x100010298, symSize: 0x24 }
  - { offsetInCU: 0x8577, offset: 0x3E20F, size: 0x8, addend: 0x0, symName: __ZNSt8_Rb_treeINSt7__cxx1112basic_stringIcSt11char_traitsIcESaIcEEESt4pairIKS5_St10unique_ptrI4ExprSt14default_deleteIS9_EEESt10_Select1stISD_ESt4lessIS5_ESaISD_EE10_Auto_node9_M_insertES6_IPSt18_Rb_tree_node_baseSM_E, symObjAddr: 0x136C, symBinAddr: 0x10001024C, symSize: 0x4C }
  - { offsetInCU: 0x85C3, offset: 0x3E25B, size: 0x8, addend: 0x0, symName: __ZNKSt8_Rb_treeINSt7__cxx1112basic_stringIcSt11char_traitsIcESaIcEEESt4pairIKS5_St10unique_ptrI4ExprSt14default_deleteIS9_EEESt10_Select1stISD_ESt4lessIS5_ESaISD_EE10_Auto_node6_M_keyEv, symObjAddr: 0x134C, symBinAddr: 0x10001022C, symSize: 0x20 }
  - { offsetInCU: 0x85ED, offset: 0x3E285, size: 0x8, addend: 0x0, symName: __ZNSt8_Rb_treeINSt7__cxx1112basic_stringIcSt11char_traitsIcESaIcEEESt4pairIKS5_St10unique_ptrI4ExprSt14default_deleteIS9_EEESt10_Select1stISD_ESt4lessIS5_ESaISD_EE29_M_get_insert_hint_unique_posESt23_Rb_tree_const_iteratorISD_ERS7_, symObjAddr: 0x1054, symBinAddr: 0x10000FF34, symSize: 0x2F8 }
  - { offsetInCU: 0x876C, offset: 0x3E404, size: 0x8, addend: 0x0, symName: __ZNSt8_Rb_treeINSt7__cxx1112basic_stringIcSt11char_traitsIcESaIcEEESt4pairIKS5_St10unique_ptrI4ExprSt14default_deleteIS9_EEESt10_Select1stISD_ESt4lessIS5_ESaISD_EE10_Auto_nodeD1Ev, symObjAddr: 0x1010, symBinAddr: 0x10000FEF0, symSize: 0x44 }
  - { offsetInCU: 0x8823, offset: 0x3E4BB, size: 0x8, addend: 0x0, symName: __ZNSt8_Rb_treeINSt7__cxx1112basic_stringIcSt11char_traitsIcESaIcEEESt4pairIKS5_St10unique_ptrI4ExprSt14default_deleteIS9_EEESt10_Select1stISD_ESt4lessIS5_ESaISD_EE10_Auto_nodeC1IJRKSt21piecewise_construct_tSt5tupleIJRS7_EESP_IJEEEEERSJ_DpOT_, symObjAddr: 0xF94, symBinAddr: 0x10000FE74, symSize: 0x7C }
  - { offsetInCU: 0x879D, offset: 0x3E435, size: 0x8, addend: 0x0, symName: __ZSt7forwardISt5tupleIJEEEOT_RNSt16remove_referenceIS2_E4typeE, symObjAddr: 0xF80, symBinAddr: 0x10000FE60, symSize: 0x14 }
  - { offsetInCU: 0x87D4, offset: 0x3E46C, size: 0x8, addend: 0x0, symName: __ZSt7forwardISt5tupleIJRKNSt7__cxx1112basic_stringIcSt11char_traitsIcESaIcEEEEEEOT_RNSt16remove_referenceISA_E4typeE, symObjAddr: 0xF6C, symBinAddr: 0x10000FE4C, symSize: 0x14 }
  - { offsetInCU: 0x880B, offset: 0x3E4A3, size: 0x8, addend: 0x0, symName: __ZSt7forwardIRKSt21piecewise_construct_tEOT_RNSt16remove_referenceIS3_E4typeE, symObjAddr: 0xF58, symBinAddr: 0x10000FE38, symSize: 0x14 }
  - { offsetInCU: 0x88BB, offset: 0x3E553, size: 0x8, addend: 0x0, symName: __ZNSt11_Tuple_implILm0EJRKNSt7__cxx1112basic_stringIcSt11char_traitsIcESaIcEEEEEC2ES7_, symObjAddr: 0xF30, symBinAddr: 0x10000FE10, symSize: 0x28 }
  - { offsetInCU: 0x8893, offset: 0x3E52B, size: 0x8, addend: 0x0, symName: __ZStltIcSt11char_traitsIcESaIcEEbRKNSt7__cxx1112basic_stringIT_T0_T1_EESA_, symObjAddr: 0xF04, symBinAddr: 0x10000FDE4, symSize: 0x2C }
  - { offsetInCU: 0x88ED, offset: 0x3E585, size: 0x8, addend: 0x0, symName: __ZNSt13_Rb_tree_nodeISt4pairIKNSt7__cxx1112basic_stringIcSt11char_traitsIcESaIcEEESt10unique_ptrI4ExprSt14default_deleteIS9_EEEE9_M_valptrEv, symObjAddr: 0xEE4, symBinAddr: 0x10000FDC4, symSize: 0x20 }
  - { offsetInCU: 0x8917, offset: 0x3E5AF, size: 0x8, addend: 0x0, symName: __ZNKSt8_Rb_treeINSt7__cxx1112basic_stringIcSt11char_traitsIcESaIcEEESt4pairIKS5_St10unique_ptrI4ExprSt14default_deleteIS9_EEESt10_Select1stISD_ESt4lessIS5_ESaISD_EE8key_compEv, symObjAddr: 0xECC, symBinAddr: 0x10000FDAC, symSize: 0x18 }
  - { offsetInCU: 0x8941, offset: 0x3E5D9, size: 0x8, addend: 0x0, symName: __ZNSt8_Rb_treeINSt7__cxx1112basic_stringIcSt11char_traitsIcESaIcEEESt4pairIKS5_St10unique_ptrI4ExprSt14default_deleteIS9_EEESt10_Select1stISD_ESt4lessIS5_ESaISD_EE11lower_boundERS7_, symObjAddr: 0xE84, symBinAddr: 0x10000FD64, symSize: 0x48 }
  - { offsetInCU: 0x8978, offset: 0x3E610, size: 0x8, addend: 0x0, symName: __ZSt15__alloc_on_moveISaISt13_Rb_tree_nodeISt4pairIKNSt7__cxx1112basic_stringIcSt11char_traitsIcESaIcEEESt10unique_ptrI4ExprSt14default_deleteISA_EEEEEEvRT_SI_, symObjAddr: 0xE60, symBinAddr: 0x10000FD40, symSize: 0x24 }
  - { offsetInCU: 0x89C0, offset: 0x3E658, size: 0x8, addend: 0x0, symName: __ZNSt8_Rb_treeINSt7__cxx1112basic_stringIcSt11char_traitsIcESaIcEEESt4pairIKS5_St10unique_ptrI4ExprSt14default_deleteIS9_EEESt10_Select1stISD_ESt4lessIS5_ESaISD_EE21_M_get_Node_allocatorEv, symObjAddr: 0xE4C, symBinAddr: 0x10000FD2C, symSize: 0x14 }
  - { offsetInCU: 0x89EA, offset: 0x3E682, size: 0x8, addend: 0x0, symName: __ZNSt8_Rb_treeINSt7__cxx1112basic_stringIcSt11char_traitsIcESaIcEEESt4pairIKS5_St10unique_ptrI4ExprSt14default_deleteIS9_EEESt10_Select1stISD_ESt4lessIS5_ESaISD_EE12_M_move_dataERSJ_St17integral_constantIbLb1EE, symObjAddr: 0xE10, symBinAddr: 0x10000FCF0, symSize: 0x3C }
  - { offsetInCU: 0x8A2E, offset: 0x3E6C6, size: 0x8, addend: 0x0, symName: __ZNSt8_Rb_treeINSt7__cxx1112basic_stringIcSt11char_traitsIcESaIcEEESt4pairIKS5_St10unique_ptrI4ExprSt14default_deleteIS9_EEESt10_Select1stISD_ESt4lessIS5_ESaISD_EE7_M_rootEv, symObjAddr: 0xDF8, symBinAddr: 0x10000FCD8, symSize: 0x18 }
  - { offsetInCU: 0x8A58, offset: 0x3E6F0, size: 0x8, addend: 0x0, symName: __ZNSt8_Rb_treeINSt7__cxx1112basic_stringIcSt11char_traitsIcESaIcEEESt4pairIKS5_St10unique_ptrI4ExprSt14default_deleteIS9_EEESt10_Select1stISD_ESt4lessIS5_ESaISD_EE5clearEv, symObjAddr: 0xDC0, symBinAddr: 0x10000FCA0, symSize: 0x38 }
  - { offsetInCU: 0x8A82, offset: 0x3E71A, size: 0x8, addend: 0x0, symName: __ZNKSt8_Rb_treeINSt7__cxx1112basic_stringIcSt11char_traitsIcESaIcEEESt4pairIKS5_St10unique_ptrI4ExprSt14default_deleteIS9_EEESt10_Select1stISD_ESt4lessIS5_ESaISD_EE9_M_mbeginEv, symObjAddr: 0xDA8, symBinAddr: 0x10000FC88, symSize: 0x18 }
  - { offsetInCU: 0x8AAC, offset: 0x3E744, size: 0x8, addend: 0x0, symName: __ZNSt8_Rb_treeINSt7__cxx1112basic_stringIcSt11char_traitsIcESaIcEEESt4pairIKS5_St10unique_ptrI4ExprSt14default_deleteIS9_EEESt10_Select1stISD_ESt4lessIS5_ESaISD_EE12_M_drop_nodeEPSt13_Rb_tree_nodeISD_E, symObjAddr: 0xD74, symBinAddr: 0x10000FC54, symSize: 0x34 }
  - { offsetInCU: 0x8AE3, offset: 0x3E77B, size: 0x8, addend: 0x0, symName: __ZNSt8_Rb_treeINSt7__cxx1112basic_stringIcSt11char_traitsIcESaIcEEESt4pairIKS5_St10unique_ptrI4ExprSt14default_deleteIS9_EEESt10_Select1stISD_ESt4lessIS5_ESaISD_EE7_S_leftEPSt18_Rb_tree_node_base, symObjAddr: 0xD5C, symBinAddr: 0x10000FC3C, symSize: 0x18 }
  - { offsetInCU: 0x8B0D, offset: 0x3E7A5, size: 0x8, addend: 0x0, symName: __ZNSt8_Rb_treeINSt7__cxx1112basic_stringIcSt11char_traitsIcESaIcEEESt4pairIKS5_St10unique_ptrI4ExprSt14default_deleteIS9_EEESt10_Select1stISD_ESt4lessIS5_ESaISD_EE8_S_rightEPSt18_Rb_tree_node_base, symObjAddr: 0xD44, symBinAddr: 0x10000FC24, symSize: 0x18 }
  - { offsetInCU: 0x8BEB, offset: 0x3E883, size: 0x8, addend: 0x0, symName: __ZNSt15__new_allocatorISt13_Rb_tree_nodeISt4pairIKNSt7__cxx1112basic_stringIcSt11char_traitsIcESaIcEEESt10unique_ptrI4ExprSt14default_deleteISA_EEEEEC2Ev, symObjAddr: 0xD30, symBinAddr: 0x10000FC10, symSize: 0x14 }
  - { offsetInCU: 0x8B7B, offset: 0x3E813, size: 0x8, addend: 0x0, symName: __ZNSt8_Rb_treeINSt7__cxx1112basic_stringIcSt11char_traitsIcESaIcEEESt4pairIKS5_St10unique_ptrI4ExprSt14default_deleteIS9_EEESt10_Select1stISD_ESt4lessIS5_ESaISD_EE5eraseERS7_, symObjAddr: 0xC78, symBinAddr: 0x10000FB9C, symSize: 0x74 }
  - { offsetInCU: 0x8BD8, offset: 0x3E870, size: 0x8, addend: 0x0, symName: __ZNSt8_Rb_treeINSt7__cxx1112basic_stringIcSt11char_traitsIcESaIcEEESt4pairIKS5_St10unique_ptrI4ExprSt14default_deleteIS9_EEESt10_Select1stISD_ESt4lessIS5_ESaISD_EE3endEv, symObjAddr: 0xC50, symBinAddr: 0x10000FB74, symSize: 0x28 }
  - { offsetInCU: 0x8C02, offset: 0x3E89A, size: 0x8, addend: 0x0, symName: __ZNSt8_Rb_treeINSt7__cxx1112basic_stringIcSt11char_traitsIcESaIcEEESt4pairIKS5_St10unique_ptrI4ExprSt14default_deleteIS9_EEESt10_Select1stISD_ESt4lessIS5_ESaISD_EE4findERS7_, symObjAddr: 0xBB0, symBinAddr: 0x10000FAD4, symSize: 0xA0 }
  - { offsetInCU: 0x8C4E, offset: 0x3E8E6, size: 0x8, addend: 0x0, symName: __ZNSt8_Rb_treeINSt7__cxx1112basic_stringIcSt11char_traitsIcESaIcEEESt4pairIKS5_St10unique_ptrI4ExprSt14default_deleteIS9_EEESt10_Select1stISD_ESt4lessIS5_ESaISD_EE22_M_emplace_hint_uniqueIJRKSt21piecewise_construct_tSt5tupleIJRS7_EESO_IJEEEEESt17_Rb_tree_iteratorISD_ESt23_Rb_tree_const_iteratorISD_EDpOT_, symObjAddr: 0xA14, symBinAddr: 0x10000F9FC, symSize: 0xD8 }
  - { offsetInCU: 0x8DB3, offset: 0x3EA4B, size: 0x8, addend: 0x0, symName: __ZNSt23_Rb_tree_const_iteratorISt4pairIKNSt7__cxx1112basic_stringIcSt11char_traitsIcESaIcEEESt10unique_ptrI4ExprSt14default_deleteIS9_EEEEC1ERKSt17_Rb_tree_iteratorISD_E, symObjAddr: 0x9EC, symBinAddr: 0x10000F9D4, symSize: 0x28 }
  - { offsetInCU: 0x8DC0, offset: 0x3EA58, size: 0x8, addend: 0x0, symName: __ZNSt5tupleIJRKNSt7__cxx1112basic_stringIcSt11char_traitsIcESaIcEEEEEC1ILb1ELb1EEES7_, symObjAddr: 0x9C4, symBinAddr: 0x10000F9AC, symSize: 0x28 }
  - { offsetInCU: 0x8DA7, offset: 0x3EA3F, size: 0x8, addend: 0x0, symName: __ZNKSt4lessINSt7__cxx1112basic_stringIcSt11char_traitsIcESaIcEEEEclERKS5_S8_, symObjAddr: 0x99C, symBinAddr: 0x10000F984, symSize: 0x28 }
  - { offsetInCU: 0x8DF3, offset: 0x3EA8B, size: 0x8, addend: 0x0, symName: __ZNKSt17_Rb_tree_iteratorISt4pairIKNSt7__cxx1112basic_stringIcSt11char_traitsIcESaIcEEESt10unique_ptrI4ExprSt14default_deleteIS9_EEEEdeEv, symObjAddr: 0x97C, symBinAddr: 0x10000F964, symSize: 0x20 }
  - { offsetInCU: 0x8E1D, offset: 0x3EAB5, size: 0x8, addend: 0x0, symName: __ZNKSt3mapINSt7__cxx1112basic_stringIcSt11char_traitsIcESaIcEEESt10unique_ptrI4ExprSt14default_deleteIS7_EESt4lessIS5_ESaISt4pairIKS5_SA_EEE8key_compEv, symObjAddr: 0x950, symBinAddr: 0x10000F938, symSize: 0x2C }
  - { offsetInCU: 0x8E49, offset: 0x3EAE1, size: 0x8, addend: 0x0, symName: __ZSteqRKSt17_Rb_tree_iteratorISt4pairIKNSt7__cxx1112basic_stringIcSt11char_traitsIcESaIcEEESt10unique_ptrI4ExprSt14default_deleteIS9_EEEESG_, symObjAddr: 0x920, symBinAddr: 0x10000F908, symSize: 0x30 }
  - { offsetInCU: 0x8E88, offset: 0x3EB20, size: 0x8, addend: 0x0, symName: __ZNSt3mapINSt7__cxx1112basic_stringIcSt11char_traitsIcESaIcEEESt10unique_ptrI4ExprSt14default_deleteIS7_EESt4lessIS5_ESaISt4pairIKS5_SA_EEE11lower_boundERSE_, symObjAddr: 0x8FC, symBinAddr: 0x10000F8E4, symSize: 0x24 }
  - { offsetInCU: 0x8EC3, offset: 0x3EB5B, size: 0x8, addend: 0x0, symName: __ZNSt8_Rb_treeINSt7__cxx1112basic_stringIcSt11char_traitsIcESaIcEEESt4pairIKS5_St10unique_ptrI4ExprSt14default_deleteIS9_EEESt10_Select1stISD_ESt4lessIS5_ESaISD_EE14_M_move_assignERSJ_St17integral_constantIbLb1EE, symObjAddr: 0x87C, symBinAddr: 0x10000F864, symSize: 0x80 }
  - { offsetInCU: 0x8F0F, offset: 0x3EBA7, size: 0x8, addend: 0x0, symName: __ZSt4moveIRSt4lessINSt7__cxx1112basic_stringIcSt11char_traitsIcESaIcEEEEEONSt16remove_referenceIT_E4typeEOSA_, symObjAddr: 0x868, symBinAddr: 0x10000F850, symSize: 0x14 }
  - { offsetInCU: 0x8F44, offset: 0x3EBDC, size: 0x8, addend: 0x0, symName: __ZNSt8_Rb_treeINSt7__cxx1112basic_stringIcSt11char_traitsIcESaIcEEESt4pairIKS5_St10unique_ptrI4ExprSt14default_deleteIS9_EEESt10_Select1stISD_ESt4lessIS5_ESaISD_EE8_M_beginEv, symObjAddr: 0x84C, symBinAddr: 0x10000F834, symSize: 0x1C }
  - { offsetInCU: 0x8F6E, offset: 0x3EC06, size: 0x8, addend: 0x0, symName: __ZNSt8_Rb_treeINSt7__cxx1112basic_stringIcSt11char_traitsIcESaIcEEESt4pairIKS5_St10unique_ptrI4ExprSt14default_deleteIS9_EEESt10_Select1stISD_ESt4lessIS5_ESaISD_EE8_M_eraseEPSt13_Rb_tree_nodeISD_E, symObjAddr: 0x7E8, symBinAddr: 0x10000F7D0, symSize: 0x64 }
  - { offsetInCU: 0x9087, offset: 0x3ED1F, size: 0x8, addend: 0x0, symName: __ZNSt15__new_allocatorISt13_Rb_tree_nodeISt4pairIKNSt7__cxx1112basic_stringIcSt11char_traitsIcESaIcEEESt10unique_ptrI4ExprSt14default_deleteISA_EEEEED2Ev, symObjAddr: 0x7D4, symBinAddr: 0x10000F7BC, symSize: 0x14 }
  - { offsetInCU: 0x908C, offset: 0x3ED24, size: 0x8, addend: 0x0, symName: __ZNSt20_Rb_tree_key_compareISt4lessINSt7__cxx1112basic_stringIcSt11char_traitsIcESaIcEEEEEC2Ev, symObjAddr: 0x7C0, symBinAddr: 0x10000F7A8, symSize: 0x14 }
  - { offsetInCU: 0x90F6, offset: 0x3ED8E, size: 0x8, addend: 0x0, symName: __ZNSaISt13_Rb_tree_nodeISt4pairIKNSt7__cxx1112basic_stringIcSt11char_traitsIcESaIcEEESt10unique_ptrI4ExprSt14default_deleteIS9_EEEEEC2Ev, symObjAddr: 0x7A0, symBinAddr: 0x10000F788, symSize: 0x20 }
  - { offsetInCU: 0x9097, offset: 0x3ED2F, size: 0x8, addend: 0x0, symName: __ZNSt3mapINSt7__cxx1112basic_stringIcSt11char_traitsIcESaIcEEESt10unique_ptrI4ExprSt14default_deleteIS7_EESt4lessIS5_ESaISt4pairIKS5_SA_EEE5eraseERSE_, symObjAddr: 0x6E0, symBinAddr: 0x10000F764, symSize: 0x24 }
  - { offsetInCU: 0x90CE, offset: 0x3ED66, size: 0x8, addend: 0x0, symName: __ZStneRKSt17_Rb_tree_iteratorISt4pairIKNSt7__cxx1112basic_stringIcSt11char_traitsIcESaIcEEESt10unique_ptrI4ExprSt14default_deleteIS9_EEEESG_, symObjAddr: 0x6B0, symBinAddr: 0x10000F734, symSize: 0x30 }
  - { offsetInCU: 0x910D, offset: 0x3EDA5, size: 0x8, addend: 0x0, symName: __ZNSt3mapINSt7__cxx1112basic_stringIcSt11char_traitsIcESaIcEEESt10unique_ptrI4ExprSt14default_deleteIS7_EESt4lessIS5_ESaISt4pairIKS5_SA_EEE3endEv, symObjAddr: 0x694, symBinAddr: 0x10000F718, symSize: 0x1C }
  - { offsetInCU: 0x9137, offset: 0x3EDCF, size: 0x8, addend: 0x0, symName: __ZNSt3mapINSt7__cxx1112basic_stringIcSt11char_traitsIcESaIcEEESt10unique_ptrI4ExprSt14default_deleteIS7_EESt4lessIS5_ESaISt4pairIKS5_SA_EEE4findERSE_, symObjAddr: 0x670, symBinAddr: 0x10000F6F4, symSize: 0x24 }
  - { offsetInCU: 0x9172, offset: 0x3EE0A, size: 0x8, addend: 0x0, symName: __ZNSt3mapINSt7__cxx1112basic_stringIcSt11char_traitsIcESaIcEEESt10unique_ptrI4ExprSt14default_deleteIS7_EESt4lessIS5_ESaISt4pairIKS5_SA_EEEixERSE_, symObjAddr: 0x538, symBinAddr: 0x10000F614, symSize: 0xE0 }
  - { offsetInCU: 0x91BE, offset: 0x3EE56, size: 0x8, addend: 0x0, symName: __ZNSt8_Rb_treeINSt7__cxx1112basic_stringIcSt11char_traitsIcESaIcEEESt4pairIKS5_St10unique_ptrI4ExprSt14default_deleteIS9_EEESt10_Select1stISD_ESt4lessIS5_ESaISD_EEaSEOSJ_, symObjAddr: 0x4FC, symBinAddr: 0x10000F5D8, symSize: 0x3C }
  - { offsetInCU: 0x92C1, offset: 0x3EF59, size: 0x8, addend: 0x0, symName: __ZNSt8_Rb_treeINSt7__cxx1112basic_stringIcSt11char_traitsIcESaIcEEESt4pairIKS5_St10unique_ptrI4ExprSt14default_deleteIS9_EEESt10_Select1stISD_ESt4lessIS5_ESaISD_EED1Ev, symObjAddr: 0x4C8, symBinAddr: 0x10000F5A4, symSize: 0x34 }
  - { offsetInCU: 0x92EC, offset: 0x3EF84, size: 0x8, addend: 0x0, symName: __ZNSaISt13_Rb_tree_nodeISt4pairIKNSt7__cxx1112basic_stringIcSt11char_traitsIcESaIcEEESt10unique_ptrI4ExprSt14default_deleteIS9_EEEEED2Ev, symObjAddr: 0x4A8, symBinAddr: 0x10000F584, symSize: 0x20 }
  - { offsetInCU: 0x9363, offset: 0x3EFFB, size: 0x8, addend: 0x0, symName: __ZNSt8_Rb_treeINSt7__cxx1112basic_stringIcSt11char_traitsIcESaIcEEESt4pairIKS5_St10unique_ptrI4ExprSt14default_deleteIS9_EEESt10_Select1stISD_ESt4lessIS5_ESaISD_EE13_Rb_tree_implISH_Lb1EEC1Ev, symObjAddr: 0x474, symBinAddr: 0x10000F550, symSize: 0x34 }
  - { offsetInCU: 0x92D0, offset: 0x3EF68, size: 0x8, addend: 0x0, symName: __ZN11SymbolTable6removeENSt7__cxx1112basic_stringIcSt11char_traitsIcESaIcEEE, symObjAddr: 0x328, symBinAddr: 0x10000F4D4, symSize: 0x7C }
  - { offsetInCU: 0x930D, offset: 0x3EFA5, size: 0x8, addend: 0x0, symName: __ZN11SymbolTable9isInTableENSt7__cxx1112basic_stringIcSt11char_traitsIcESaIcEEE, symObjAddr: 0x2E8, symBinAddr: 0x10000F494, symSize: 0x40 }
  - { offsetInCU: 0x934A, offset: 0x3EFE2, size: 0x8, addend: 0x0, symName: __ZN11SymbolTable3addENSt7__cxx1112basic_stringIcSt11char_traitsIcESaIcEEESt10unique_ptrI4ExprSt14default_deleteIS7_EE, symObjAddr: 0x2A0, symBinAddr: 0x10000F44C, symSize: 0x48 }
  - { offsetInCU: 0x93C2, offset: 0x3F05A, size: 0x8, addend: 0x0, symName: __ZN11SymbolTableC1Ev, symObjAddr: 0x208, symBinAddr: 0x10000F404, symSize: 0x48 }
  - { offsetInCU: 0x93EC, offset: 0x3F084, size: 0x8, addend: 0x0, symName: __ZN11SymbolTableC2Ev, symObjAddr: 0x1C0, symBinAddr: 0x10000F3BC, symSize: 0x48 }
  - { offsetInCU: 0x9401, offset: 0x3F099, size: 0x8, addend: 0x0, symName: __ZNSt3mapINSt7__cxx1112basic_stringIcSt11char_traitsIcESaIcEEESt10unique_ptrI4ExprSt14default_deleteIS7_EESt4lessIS5_ESaISt4pairIKS5_SA_EEEaSEOSH_, symObjAddr: 0x198, symBinAddr: 0x10000F394, symSize: 0x28 }
  - { offsetInCU: 0x94E4, offset: 0x3F17C, size: 0x8, addend: 0x0, symName: __ZNSt3mapINSt7__cxx1112basic_stringIcSt11char_traitsIcESaIcEEESt10unique_ptrI4ExprSt14default_deleteIS7_EESt4lessIS5_ESaISt4pairIKS5_SA_EEED1Ev, symObjAddr: 0x178, symBinAddr: 0x10000F374, symSize: 0x20 }
  - { offsetInCU: 0x9524, offset: 0x3F1BC, size: 0x8, addend: 0x0, symName: __ZNSt3mapINSt7__cxx1112basic_stringIcSt11char_traitsIcESaIcEEESt10unique_ptrI4ExprSt14default_deleteIS7_EESt4lessIS5_ESaISt4pairIKS5_SA_EEEC1Ev, symObjAddr: 0x158, symBinAddr: 0x10000F354, symSize: 0x20 }
  - { offsetInCU: 0x957C, offset: 0x3F214, size: 0x8, addend: 0x0, symName: __ZNSt8_Rb_treeINSt7__cxx1112basic_stringIcSt11char_traitsIcESaIcEEESt4pairIKS5_St10unique_ptrI4ExprSt14default_deleteIS9_EEESt10_Select1stISD_ESt4lessIS5_ESaISD_EEC1Ev, symObjAddr: 0x138, symBinAddr: 0x10000F334, symSize: 0x20 }
  - { offsetInCU: 0x95E2, offset: 0x3F27A, size: 0x8, addend: 0x0, symName: __ZNSt8_Rb_treeINSt7__cxx1112basic_stringIcSt11char_traitsIcESaIcEEESt4pairIKS5_St10unique_ptrI4ExprSt14default_deleteIS9_EEESt10_Select1stISD_ESt4lessIS5_ESaISD_EE13_Rb_tree_implISH_Lb1EED1Ev, symObjAddr: 0x118, symBinAddr: 0x10000F314, symSize: 0x20 }
  - { offsetInCU: 0x954C, offset: 0x3F1E4, size: 0x8, addend: 0x0, symName: __ZNSt15_Rb_tree_header8_M_resetEv, symObjAddr: 0xDC, symBinAddr: 0x10000F2D8, symSize: 0x3C }
  - { offsetInCU: 0x9576, offset: 0x3F20E, size: 0x8, addend: 0x0, symName: __ZNSt15_Rb_tree_header12_M_move_dataERS_, symObjAddr: 0x58, symBinAddr: 0x10000F254, symSize: 0x84 }
  - { offsetInCU: 0x95E0, offset: 0x3F278, size: 0x8, addend: 0x0, symName: __ZNSt15_Rb_tree_headerC2Ev, symObjAddr: 0x30, symBinAddr: 0x10000F22C, symSize: 0x28 }
  - { offsetInCU: 0x1735, offset: 0x409B4, size: 0x8, addend: 0x0, symName: __ZN5Token12isParenTokenEv, symObjAddr: 0x4B8, symBinAddr: 0x100011544, symSize: 0x3C }
  - { offsetInCU: 0x1761, offset: 0x409E0, size: 0x8, addend: 0x0, symName: __ZN5Token8isMulDivEv, symObjAddr: 0x47C, symBinAddr: 0x100011508, symSize: 0x3C }
  - { offsetInCU: 0x178D, offset: 0x40A0C, size: 0x8, addend: 0x0, symName: __ZN5Token11isPlusMinusEv, symObjAddr: 0x440, symBinAddr: 0x1000114CC, symSize: 0x3C }
  - { offsetInCU: 0x17B9, offset: 0x40A38, size: 0x8, addend: 0x0, symName: __ZN5Token15isOperatorTokenEv, symObjAddr: 0x3E4, symBinAddr: 0x100011470, symSize: 0x5C }
  - { offsetInCU: 0x17E5, offset: 0x40A64, size: 0x8, addend: 0x0, symName: __ZN5Token13isNumberTokenEv, symObjAddr: 0x3A8, symBinAddr: 0x100011434, symSize: 0x3C }
  - { offsetInCU: 0x1845, offset: 0x40AC4, size: 0x8, addend: 0x0, symName: __ZN5TokenC1ERKS_, symObjAddr: 0x33C, symBinAddr: 0x1000113C8, symSize: 0x6C }
  - { offsetInCU: 0x1878, offset: 0x40AF7, size: 0x8, addend: 0x0, symName: __ZN5TokenC2ERKS_, symObjAddr: 0x2D0, symBinAddr: 0x10001135C, symSize: 0x6C }
  - { offsetInCU: 0x18E9, offset: 0x40B68, size: 0x8, addend: 0x0, symName: __ZN5TokenC1E9TokenTypeSt3any, symObjAddr: 0x268, symBinAddr: 0x1000112F4, symSize: 0x68 }
  - { offsetInCU: 0x1926, offset: 0x40BA5, size: 0x8, addend: 0x0, symName: __ZN5TokenC2E9TokenTypeSt3any, symObjAddr: 0x200, symBinAddr: 0x10001128C, symSize: 0x68 }
  - { offsetInCU: 0x4408, offset: 0x44FC5, size: 0x8, addend: 0x0, symName: __ZNSt3any17_Manager_internalIfE9_S_accessERKNS_8_StorageE, symObjAddr: 0x16B4, symBinAddr: 0x100011AC4, symSize: 0x1C }
  - { offsetInCU: 0x4443, offset: 0x45000, size: 0x8, addend: 0x0, symName: __ZNSt3any17_Manager_internalIiE9_S_accessERKNS_8_StorageE, symObjAddr: 0x1698, symBinAddr: 0x100011AA8, symSize: 0x1C }
  - { offsetInCU: 0x4482, offset: 0x4503F, size: 0x8, addend: 0x0, symName: __ZSt12__any_casterIfEPvPKSt3any, symObjAddr: 0x1514, symBinAddr: 0x100011A38, symSize: 0x70 }
  - { offsetInCU: 0x44B9, offset: 0x45076, size: 0x8, addend: 0x0, symName: __ZSt12__any_casterIiEPvPKSt3any, symObjAddr: 0x1490, symBinAddr: 0x1000119C8, symSize: 0x70 }
  - { offsetInCU: 0x44F2, offset: 0x450AF, size: 0x8, addend: 0x0, symName: __ZSt8any_castIfEPT_PSt3any, symObjAddr: 0x1040, symBinAddr: 0x100011998, symSize: 0x30 }
  - { offsetInCU: 0x452B, offset: 0x450E8, size: 0x8, addend: 0x0, symName: __ZSt8any_castIiEPT_PSt3any, symObjAddr: 0xE7C, symBinAddr: 0x100011968, symSize: 0x30 }
  - { offsetInCU: 0x455E, offset: 0x4511B, size: 0x8, addend: 0x0, symName: __ZSt8any_castIfET_RSt3any, symObjAddr: 0xB4C, symBinAddr: 0x10001192C, symSize: 0x3C }
  - { offsetInCU: 0x45A2, offset: 0x4515F, size: 0x8, addend: 0x0, symName: __ZSt8any_castIiET_RSt3any, symObjAddr: 0xAB4, symBinAddr: 0x1000118F0, symSize: 0x3C }
  - { offsetInCU: 0x45EA, offset: 0x451A7, size: 0x8, addend: 0x0, symName: __ZN9UnaryExpr6acceptEP7Visitor, symObjAddr: 0x904, symBinAddr: 0x1000118B8, symSize: 0x38 }
  - { offsetInCU: 0x4623, offset: 0x451E0, size: 0x8, addend: 0x0, symName: __ZN9UnaryExpr8getValueEv, symObjAddr: 0x724, symBinAddr: 0x1000116D8, symSize: 0x1E0 }
  - { offsetInCU: 0x4725, offset: 0x452E2, size: 0x8, addend: 0x0, symName: __ZN9UnaryExprC1ESt8optionalI5TokenERSt10unique_ptrI4ExprSt14default_deleteIS4_EE, symObjAddr: 0x678, symBinAddr: 0x10001162C, symSize: 0xAC }
  - { offsetInCU: 0x4762, offset: 0x4531F, size: 0x8, addend: 0x0, symName: __ZN9UnaryExprC2ESt8optionalI5TokenERSt10unique_ptrI4ExprSt14default_deleteIS4_EE, symObjAddr: 0x5CC, symBinAddr: 0x100011580, symSize: 0xAC }
  - { offsetInCU: 0x3C46, offset: 0x48F49, size: 0x8, addend: 0x0, symName: __ZN7VarDecl6acceptEP7Visitor, symObjAddr: 0x3F4, symBinAddr: 0x100011E5C, symSize: 0x38 }
  - { offsetInCU: 0x3C7F, offset: 0x48F82, size: 0x8, addend: 0x0, symName: __ZN7VarDecl8getValueEv, symObjAddr: 0x3B4, symBinAddr: 0x100011E1C, symSize: 0x40 }
  - { offsetInCU: 0x3D58, offset: 0x4905B, size: 0x8, addend: 0x0, symName: __ZN7VarDeclC1ENSt7__cxx1112basic_stringIcSt11char_traitsIcESaIcEEES5_St10unique_ptrI4ExprSt14default_deleteIS7_EE, symObjAddr: 0x31C, symBinAddr: 0x100011D84, symSize: 0x98 }
  - { offsetInCU: 0x3DA0, offset: 0x490A3, size: 0x8, addend: 0x0, symName: __ZN7VarDeclC2ENSt7__cxx1112basic_stringIcSt11char_traitsIcESaIcEEES5_St10unique_ptrI4ExprSt14default_deleteIS7_EE, symObjAddr: 0x284, symBinAddr: 0x100011CEC, symSize: 0x98 }
  - { offsetInCU: 0x3E15, offset: 0x49118, size: 0x8, addend: 0x0, symName: __ZN7VarDeclC1ENSt7__cxx1112basic_stringIcSt11char_traitsIcESaIcEEESt10unique_ptrI4ExprSt14default_deleteIS7_EE, symObjAddr: 0x20C, symBinAddr: 0x100011C74, symSize: 0x78 }
  - { offsetInCU: 0x3E53, offset: 0x49156, size: 0x8, addend: 0x0, symName: __ZN7VarDeclC2ENSt7__cxx1112basic_stringIcSt11char_traitsIcESaIcEEESt10unique_ptrI4ExprSt14default_deleteIS7_EE, symObjAddr: 0x194, symBinAddr: 0x100011BFC, symSize: 0x78 }
  - { offsetInCU: 0x3E22, offset: 0x49125, size: 0x8, addend: 0x0, symName: __ZN7VarDecl7getExprEv, symObjAddr: 0x158, symBinAddr: 0x100011BC0, symSize: 0x3C }
  - { offsetInCU: 0x3E4C, offset: 0x4914F, size: 0x8, addend: 0x0, symName: __ZN7VarDecl7getNameB5cxx11Ev, symObjAddr: 0xD0, symBinAddr: 0x100011B88, symSize: 0x38 }
  - { offsetInCU: 0x3E9C, offset: 0x4919F, size: 0x8, addend: 0x0, symName: __ZN7VarDeclC1Ev, symObjAddr: 0x7C, symBinAddr: 0x100011B34, symSize: 0x54 }
  - { offsetInCU: 0x3EC6, offset: 0x491C9, size: 0x8, addend: 0x0, symName: __ZN7VarDeclC2Ev, symObjAddr: 0x28, symBinAddr: 0x100011AE0, symSize: 0x54 }
  - { offsetInCU: 0x5901, offset: 0x4EADC, size: 0x8, addend: 0x0, symName: __ZStL8__ioinit, symObjAddr: 0x36008, symBinAddr: 0x100028004, symSize: 0x0 }
  - { offsetInCU: 0x624E, offset: 0x4F429, size: 0x8, addend: 0x0, symName: __GLOBAL__sub_I_main.cpp, symObjAddr: 0x1E7C, symBinAddr: 0x100012634, symSize: 0x1C }
  - { offsetInCU: 0x6277, offset: 0x4F452, size: 0x8, addend: 0x0, symName: __Z41__static_initialization_and_destruction_0ii, symObjAddr: 0x1E1C, symBinAddr: 0x1000125D4, symSize: 0x60 }
  - { offsetInCU: 0x6286, offset: 0x4F461, size: 0x8, addend: 0x0, symName: __ZNSt16allocator_traitsISaIcEE37select_on_container_copy_constructionERKS0_, symObjAddr: 0xFDC, symBinAddr: 0x1000125A4, symSize: 0x30 }
  - { offsetInCU: 0x631C, offset: 0x4F4F7, size: 0x8, addend: 0x0, symName: __ZNSt15__new_allocatorISt10unique_ptrI4ExprSt14default_deleteIS1_EEEC2ERKS5_, symObjAddr: 0xF6C, symBinAddr: 0x10001258C, symSize: 0x18 }
  - { offsetInCU: 0x62FE, offset: 0x4F4D9, size: 0x8, addend: 0x0, symName: __ZN9__gnu_cxx14__alloc_traitsISaIcEcE17_S_select_on_copyERKS1_, symObjAddr: 0xCD4, symBinAddr: 0x10001255C, symSize: 0x30 }
  - { offsetInCU: 0x63B0, offset: 0x4F58B, size: 0x8, addend: 0x0, symName: __ZNSt12_Vector_baseISt10unique_ptrI4ExprSt14default_deleteIS1_EESaIS4_EE17_Vector_impl_dataC2EOS7_, symObjAddr: 0xBD4, symBinAddr: 0x1000124EC, symSize: 0x70 }
  - { offsetInCU: 0x63DF, offset: 0x4F5BA, size: 0x8, addend: 0x0, symName: __ZNSaISt10unique_ptrI4ExprSt14default_deleteIS0_EEEC2ERKS4_, symObjAddr: 0xBAC, symBinAddr: 0x1000124C4, symSize: 0x28 }
  - { offsetInCU: 0x63DE, offset: 0x4F5B9, size: 0x8, addend: 0x0, symName: __ZSt4moveIRNSt12_Vector_baseISt10unique_ptrI4ExprSt14default_deleteIS2_EESaIS5_EE12_Vector_implEEONSt16remove_referenceIT_E4typeEOSB_, symObjAddr: 0xB98, symBinAddr: 0x1000124B0, symSize: 0x14 }
  - { offsetInCU: 0x640F, offset: 0x4F5EA, size: 0x8, addend: 0x0, symName: __ZStplIcSt11char_traitsIcESaIcEENSt7__cxx1112basic_stringIT_T0_T1_EEOS8_PKS5_, symObjAddr: 0x8C4, symBinAddr: 0x10001246C, symSize: 0x44 }
  - { offsetInCU: 0x6465, offset: 0x4F640, size: 0x8, addend: 0x0, symName: __ZStplIcSt11char_traitsIcESaIcEENSt7__cxx1112basic_stringIT_T0_T1_EEPKS5_RKS8_, symObjAddr: 0x7E8, symBinAddr: 0x100012390, symSize: 0xDC }
  - { offsetInCU: 0x6581, offset: 0x4F75C, size: 0x8, addend: 0x0, symName: __ZNSt12_Vector_baseISt10unique_ptrI4ExprSt14default_deleteIS1_EESaIS4_EE12_Vector_implC1EOS7_, symObjAddr: 0x63C, symBinAddr: 0x100012340, symSize: 0x50 }
  - { offsetInCU: 0x6558, offset: 0x4F733, size: 0x8, addend: 0x0, symName: __ZSt4moveIRSt6vectorISt10unique_ptrI4ExprSt14default_deleteIS2_EESaIS5_EEEONSt16remove_referenceIT_E4typeEOSA_, symObjAddr: 0x628, symBinAddr: 0x10001232C, symSize: 0x14 }
  - { offsetInCU: 0x6592, offset: 0x4F76D, size: 0x8, addend: 0x0, symName: _main, symObjAddr: 0x254, symBinAddr: 0x100011FCC, symSize: 0x360 }
  - { offsetInCU: 0x66B5, offset: 0x4F890, size: 0x8, addend: 0x0, symName: __ZN5LexerD1Ev, symObjAddr: 0x228, symBinAddr: 0x100011FA0, symSize: 0x2C }
  - { offsetInCU: 0x6706, offset: 0x4F8E1, size: 0x8, addend: 0x0, symName: __ZN11InterpreterD1Ev, symObjAddr: 0x1F0, symBinAddr: 0x100011F68, symSize: 0x38 }
  - { offsetInCU: 0x6790, offset: 0x4F96B, size: 0x8, addend: 0x0, symName: __ZN11InterpreterC1ESt6vectorISt10unique_ptrI4ExprSt14default_deleteIS2_EESaIS5_EE, symObjAddr: 0x194, symBinAddr: 0x100011F0C, symSize: 0x5C }
  - { offsetInCU: 0x67D6, offset: 0x4F9B1, size: 0x8, addend: 0x0, symName: __ZNSt6vectorISt10unique_ptrI4ExprSt14default_deleteIS1_EESaIS4_EEC1EOS6_, symObjAddr: 0x16C, symBinAddr: 0x100011EE4, symSize: 0x28 }
  - { offsetInCU: 0x682B, offset: 0x4FA06, size: 0x8, addend: 0x0, symName: __ZNSt12_Vector_baseISt10unique_ptrI4ExprSt14default_deleteIS1_EESaIS4_EEC2EOS6_, symObjAddr: 0x144, symBinAddr: 0x100011EBC, symSize: 0x28 }
  - { offsetInCU: 0x6837, offset: 0x4FA12, size: 0x8, addend: 0x0, symName: __ZN7VisitorC2Ev, symObjAddr: 0xFC, symBinAddr: 0x100011E94, symSize: 0x28 }
  - { offsetInCU: 0x5D04, offset: 0x55728, size: 0x8, addend: 0x0, symName: __ZStL8__ioinit, symObjAddr: 0x2DE20, symBinAddr: 0x100028005, symSize: 0x0 }
  - { offsetInCU: 0x5E38, offset: 0x5585C, size: 0x8, addend: 0x0, symName: __Z8KEYWORDSB5cxx11, symObjAddr: 0x2DE28, symBinAddr: 0x100028008, symSize: 0x0 }
  - { offsetInCU: 0x5E55, offset: 0x55879, size: 0x8, addend: 0x0, symName: __Z9DATATYPESB5cxx11, symObjAddr: 0x2DE40, symBinAddr: 0x100028020, symSize: 0x0 }
  - { offsetInCU: 0x5F67, offset: 0x5598B, size: 0x8, addend: 0x0, symName: __GLOBAL__sub_I_util.cpp, symObjAddr: 0x279C, symBinAddr: 0x100013DBC, symSize: 0x1C }
  - { offsetInCU: 0x5F69, offset: 0x5598D, size: 0x8, addend: 0x0, symName: __ZSt8_DestroyIPNSt7__cxx1112basic_stringIcSt11char_traitsIcESaIcEEES5_EvT_S7_RSaIT0_E, symObjAddr: 0x203C, symBinAddr: 0x1000138F0, symSize: 0x2C }
  - { offsetInCU: 0x6031, offset: 0x55A55, size: 0x8, addend: 0x0, symName: __ZNSt6vectorINSt7__cxx1112basic_stringIcSt11char_traitsIcESaIcEEESaIS5_EED1Ev, symObjAddr: 0x1FEC, symBinAddr: 0x1000138A0, symSize: 0x50 }
  - { offsetInCU: 0x6030, offset: 0x55A54, size: 0x8, addend: 0x0, symName: __Z41__static_initialization_and_destruction_0ii, symObjAddr: 0x22FC, symBinAddr: 0x10001391C, symSize: 0x4A0 }
  - { offsetInCU: 0x6041, offset: 0x55A65, size: 0x8, addend: 0x0, symName: __ZSt8_DestroyINSt7__cxx1112basic_stringIcSt11char_traitsIcESaIcEEEEvPT_, symObjAddr: 0x1F70, symBinAddr: 0x100013880, symSize: 0x20 }
  - { offsetInCU: 0x6072, offset: 0x55A96, size: 0x8, addend: 0x0, symName: __ZNSt12_Destroy_auxILb0EE9__destroyIPNSt7__cxx1112basic_stringIcSt11char_traitsIcESaIcEEEEEvT_S9_, symObjAddr: 0x1F24, symBinAddr: 0x100013834, symSize: 0x4C }
  - { offsetInCU: 0x60B2, offset: 0x55AD6, size: 0x8, addend: 0x0, symName: __ZSt8_DestroyIPNSt7__cxx1112basic_stringIcSt11char_traitsIcESaIcEEEEvT_S7_, symObjAddr: 0x1EE8, symBinAddr: 0x10001380C, symSize: 0x28 }
  - { offsetInCU: 0x60F2, offset: 0x55B16, size: 0x8, addend: 0x0, symName: __ZSt10_ConstructINSt7__cxx1112basic_stringIcSt11char_traitsIcESaIcEEEJRKS5_EEvPT_DpOT0_, symObjAddr: 0x1E70, symBinAddr: 0x100013794, symSize: 0x78 }
  - { offsetInCU: 0x613D, offset: 0x55B61, size: 0x8, addend: 0x0, symName: __ZSt11__addressofINSt7__cxx1112basic_stringIcSt11char_traitsIcESaIcEEEEPT_RS6_, symObjAddr: 0x1E5C, symBinAddr: 0x100013780, symSize: 0x14 }
  - { offsetInCU: 0x616E, offset: 0x55B92, size: 0x8, addend: 0x0, symName: __ZSt16__do_uninit_copyIPKNSt7__cxx1112basic_stringIcSt11char_traitsIcESaIcEEEPS5_ET0_T_SA_S9_, symObjAddr: 0x1DC8, symBinAddr: 0x1000136EC, symSize: 0x94 }
  - { offsetInCU: 0x61DA, offset: 0x55BFE, size: 0x8, addend: 0x0, symName: __ZNKSt15__new_allocatorINSt7__cxx1112basic_stringIcSt11char_traitsIcESaIcEEEE11_M_max_sizeEv, symObjAddr: 0x1DB4, symBinAddr: 0x1000136D8, symSize: 0x14 }
  - { offsetInCU: 0x6204, offset: 0x55C28, size: 0x8, addend: 0x0, symName: __ZNKSt15__new_allocatorINSt7__cxx1112basic_stringIcSt11char_traitsIcESaIcEEEE8max_sizeEv, symObjAddr: 0x1D98, symBinAddr: 0x1000136BC, symSize: 0x1C }
  - { offsetInCU: 0x622A, offset: 0x55C4E, size: 0x8, addend: 0x0, symName: __ZNSt20__uninitialized_copyILb0EE13__uninit_copyIPKNSt7__cxx1112basic_stringIcSt11char_traitsIcESaIcEEEPS7_EET0_T_SC_SB_, symObjAddr: 0x1D44, symBinAddr: 0x100013690, symSize: 0x2C }
  - { offsetInCU: 0x6286, offset: 0x55CAA, size: 0x8, addend: 0x0, symName: __ZNSt15__new_allocatorINSt7__cxx1112basic_stringIcSt11char_traitsIcESaIcEEEE8allocateEmPKv, symObjAddr: 0x1CCC, symBinAddr: 0x100013618, symSize: 0x78 }
  - { offsetInCU: 0x62D4, offset: 0x55CF8, size: 0x8, addend: 0x0, symName: __ZNSt16allocator_traitsISaINSt7__cxx1112basic_stringIcSt11char_traitsIcESaIcEEEEE8max_sizeERKS6_, symObjAddr: 0x1C78, symBinAddr: 0x1000135FC, symSize: 0x1C }
  - { offsetInCU: 0x6302, offset: 0x55D26, size: 0x8, addend: 0x0, symName: __ZNSt15__new_allocatorINSt7__cxx1112basic_stringIcSt11char_traitsIcESaIcEEEE10deallocateEPS5_m, symObjAddr: 0x1C48, symBinAddr: 0x1000135CC, symSize: 0x30 }
  - { offsetInCU: 0x63BA, offset: 0x55DDE, size: 0x8, addend: 0x0, symName: __ZNSt15__new_allocatorINSt7__cxx1112basic_stringIcSt11char_traitsIcESaIcEEEEC2ERKS6_, symObjAddr: 0x1C30, symBinAddr: 0x1000135B4, symSize: 0x18 }
  - { offsetInCU: 0x639A, offset: 0x55DBE, size: 0x8, addend: 0x0, symName: __ZSt18uninitialized_copyIPKNSt7__cxx1112basic_stringIcSt11char_traitsIcESaIcEEEPS5_ET0_T_SA_S9_, symObjAddr: 0x17E4, symBinAddr: 0x100013580, symSize: 0x34 }
  - { offsetInCU: 0x6412, offset: 0x55E36, size: 0x8, addend: 0x0, symName: __ZNSt16allocator_traitsISaINSt7__cxx1112basic_stringIcSt11char_traitsIcESaIcEEEEE8allocateERS6_m, symObjAddr: 0x17BC, symBinAddr: 0x100013558, symSize: 0x28 }
  - { offsetInCU: 0x644D, offset: 0x55E71, size: 0x8, addend: 0x0, symName: __ZNSt6vectorINSt7__cxx1112basic_stringIcSt11char_traitsIcESaIcEEESaIS5_EE11_S_max_sizeERKS6_, symObjAddr: 0x1784, symBinAddr: 0x100013520, symSize: 0x38 }
  - { offsetInCU: 0x6499, offset: 0x55EBD, size: 0x8, addend: 0x0, symName: __ZNSt16allocator_traitsISaINSt7__cxx1112basic_stringIcSt11char_traitsIcESaIcEEEEE10deallocateERS6_PS5_m, symObjAddr: 0x1754, symBinAddr: 0x1000134F0, symSize: 0x30 }
  - { offsetInCU: 0x6567, offset: 0x55F8B, size: 0x8, addend: 0x0, symName: __ZNSt12_Vector_baseINSt7__cxx1112basic_stringIcSt11char_traitsIcESaIcEEESaIS5_EE17_Vector_impl_dataC2Ev, symObjAddr: 0x1728, symBinAddr: 0x1000134C4, symSize: 0x2C }
  - { offsetInCU: 0x6590, offset: 0x55FB4, size: 0x8, addend: 0x0, symName: __ZNSaINSt7__cxx1112basic_stringIcSt11char_traitsIcESaIcEEEEC1ERKS5_, symObjAddr: 0x1700, symBinAddr: 0x10001349C, symSize: 0x28 }
  - { offsetInCU: 0x65C3, offset: 0x55FE7, size: 0x8, addend: 0x0, symName: __ZNSaINSt7__cxx1112basic_stringIcSt11char_traitsIcESaIcEEEEC2ERKS5_, symObjAddr: 0x16D8, symBinAddr: 0x100013474, symSize: 0x28 }
  - { offsetInCU: 0x65AE, offset: 0x55FD2, size: 0x8, addend: 0x0, symName: __ZSt22__uninitialized_copy_aIPKNSt7__cxx1112basic_stringIcSt11char_traitsIcESaIcEEEPS5_S5_ET0_T_SA_S9_RSaIT1_E, symObjAddr: 0x1520, symBinAddr: 0x100013444, symSize: 0x30 }
  - { offsetInCU: 0x6622, offset: 0x56046, size: 0x8, addend: 0x0, symName: __ZNSt12_Vector_baseINSt7__cxx1112basic_stringIcSt11char_traitsIcESaIcEEESaIS5_EE11_M_allocateEm, symObjAddr: 0x14E8, symBinAddr: 0x10001340C, symSize: 0x38 }
  - { offsetInCU: 0x665D, offset: 0x56081, size: 0x8, addend: 0x0, symName: __ZNSt12_Vector_baseINSt7__cxx1112basic_stringIcSt11char_traitsIcESaIcEEESaIS5_EE19_M_get_Tp_allocatorEv, symObjAddr: 0x14D4, symBinAddr: 0x1000133F8, symSize: 0x14 }
  - { offsetInCU: 0x6683, offset: 0x560A7, size: 0x8, addend: 0x0, symName: __ZNSt6vectorINSt7__cxx1112basic_stringIcSt11char_traitsIcESaIcEEESaIS5_EE17_S_check_init_lenEmRKS6_, symObjAddr: 0x146C, symBinAddr: 0x100013390, symSize: 0x68 }
  - { offsetInCU: 0x66BE, offset: 0x560E2, size: 0x8, addend: 0x0, symName: __ZSt10__distanceIPKNSt7__cxx1112basic_stringIcSt11char_traitsIcESaIcEEEENSt15iterator_traitsIT_E15difference_typeES9_S9_St26random_access_iterator_tag, symObjAddr: 0x1444, symBinAddr: 0x100013368, symSize: 0x28 }
  - { offsetInCU: 0x670D, offset: 0x56131, size: 0x8, addend: 0x0, symName: __ZSt19__iterator_categoryIPKNSt7__cxx1112basic_stringIcSt11char_traitsIcESaIcEEEENSt15iterator_traitsIT_E17iterator_categoryERKS9_, symObjAddr: 0x1430, symBinAddr: 0x100013354, symSize: 0x14 }
  - { offsetInCU: 0x673C, offset: 0x56160, size: 0x8, addend: 0x0, symName: __ZNKSt16initializer_listINSt7__cxx1112basic_stringIcSt11char_traitsIcESaIcEEEE4sizeEv, symObjAddr: 0x1418, symBinAddr: 0x10001333C, symSize: 0x18 }
  - { offsetInCU: 0x6766, offset: 0x5618A, size: 0x8, addend: 0x0, symName: __ZNSt12_Vector_baseINSt7__cxx1112basic_stringIcSt11char_traitsIcESaIcEEESaIS5_EE13_M_deallocateEPS5_m, symObjAddr: 0x13DC, symBinAddr: 0x100013300, symSize: 0x3C }
  - { offsetInCU: 0x683C, offset: 0x56260, size: 0x8, addend: 0x0, symName: __ZNSt12_Vector_baseINSt7__cxx1112basic_stringIcSt11char_traitsIcESaIcEEESaIS5_EE12_Vector_implC1ERKS6_, symObjAddr: 0x13AC, symBinAddr: 0x1000132D0, symSize: 0x30 }
  - { offsetInCU: 0x6804, offset: 0x56228, size: 0x8, addend: 0x0, symName: __ZSt8any_castINSt7__cxx1112basic_stringIcSt11char_traitsIcESaIcEEEEPKT_PKSt3any, symObjAddr: 0x1340, symBinAddr: 0x1000132A0, symSize: 0x30 }
  - { offsetInCU: 0x6837, offset: 0x5625B, size: 0x8, addend: 0x0, symName: __ZSt8any_castIfEPKT_PKSt3any, symObjAddr: 0x1310, symBinAddr: 0x100013270, symSize: 0x30 }
  - { offsetInCU: 0x686A, offset: 0x5628E, size: 0x8, addend: 0x0, symName: __ZSt8any_castIiEPKT_PKSt3any, symObjAddr: 0x12E0, symBinAddr: 0x100013240, symSize: 0x30 }
  - { offsetInCU: 0x68A1, offset: 0x562C5, size: 0x8, addend: 0x0, symName: __ZNK9__gnu_cxx17__normal_iteratorIPNSt7__cxx1112basic_stringIcSt11char_traitsIcESaIcEEESt6vectorIS6_SaIS6_EEE4baseEv, symObjAddr: 0x123C, symBinAddr: 0x10001322C, symSize: 0x14 }
  - { offsetInCU: 0x6964, offset: 0x56388, size: 0x8, addend: 0x0, symName: __ZN9__gnu_cxx17__normal_iteratorIPNSt7__cxx1112basic_stringIcSt11char_traitsIcESaIcEEESt6vectorIS6_SaIS6_EEEC1ERKS7_, symObjAddr: 0x1214, symBinAddr: 0x100013204, symSize: 0x28 }
  - { offsetInCU: 0x691E, offset: 0x56342, size: 0x8, addend: 0x0, symName: __ZSteqIcSt11char_traitsIcESaIcEEbRKNSt7__cxx1112basic_stringIT_T0_T1_EEPKS5_, symObjAddr: 0x11E4, symBinAddr: 0x1000131D4, symSize: 0x30 }
  - { offsetInCU: 0x6978, offset: 0x5639C, size: 0x8, addend: 0x0, symName: __ZNSt6vectorINSt7__cxx1112basic_stringIcSt11char_traitsIcESaIcEEESaIS5_EE19_M_range_initializeIPKS5_EEvT_SB_St20forward_iterator_tag, symObjAddr: 0x112C, symBinAddr: 0x10001311C, symSize: 0xB8 }
  - { offsetInCU: 0x69E3, offset: 0x56407, size: 0x8, addend: 0x0, symName: __ZSt8distanceIPKNSt7__cxx1112basic_stringIcSt11char_traitsIcESaIcEEEENSt15iterator_traitsIT_E15difference_typeES9_S9_, symObjAddr: 0x10F0, symBinAddr: 0x1000130E0, symSize: 0x3C }
  - { offsetInCU: 0x6A27, offset: 0x5644B, size: 0x8, addend: 0x0, symName: __ZNKSt16initializer_listINSt7__cxx1112basic_stringIcSt11char_traitsIcESaIcEEEE3endEv, symObjAddr: 0x10B8, symBinAddr: 0x1000130A8, symSize: 0x38 }
  - { offsetInCU: 0x6A51, offset: 0x56475, size: 0x8, addend: 0x0, symName: __ZNKSt16initializer_listINSt7__cxx1112basic_stringIcSt11char_traitsIcESaIcEEEE5beginEv, symObjAddr: 0x10A0, symBinAddr: 0x100013090, symSize: 0x18 }
  - { offsetInCU: 0x6AF0, offset: 0x56514, size: 0x8, addend: 0x0, symName: __ZNSt12_Vector_baseINSt7__cxx1112basic_stringIcSt11char_traitsIcESaIcEEESaIS5_EED2Ev, symObjAddr: 0x1050, symBinAddr: 0x100013040, symSize: 0x50 }
  - { offsetInCU: 0x6B42, offset: 0x56566, size: 0x8, addend: 0x0, symName: __ZNSt12_Vector_baseINSt7__cxx1112basic_stringIcSt11char_traitsIcESaIcEEESaIS5_EEC2ERKS6_, symObjAddr: 0x1028, symBinAddr: 0x100013018, symSize: 0x28 }
  - { offsetInCU: 0x6BA2, offset: 0x565C6, size: 0x8, addend: 0x0, symName: __ZNSt12_Vector_baseINSt7__cxx1112basic_stringIcSt11char_traitsIcESaIcEEESaIS5_EE12_Vector_implD1Ev, symObjAddr: 0x1008, symBinAddr: 0x100012FF8, symSize: 0x20 }
  - { offsetInCU: 0x6BDA, offset: 0x565FE, size: 0x8, addend: 0x0, symName: __ZNSt15__new_allocatorINSt7__cxx1112basic_stringIcSt11char_traitsIcESaIcEEEED2Ev, symObjAddr: 0xFF4, symBinAddr: 0x100012FE4, symSize: 0x14 }
  - { offsetInCU: 0x6C1A, offset: 0x5663E, size: 0x8, addend: 0x0, symName: __ZNSt15__new_allocatorINSt7__cxx1112basic_stringIcSt11char_traitsIcESaIcEEEEC2Ev, symObjAddr: 0xFE0, symBinAddr: 0x100012FD0, symSize: 0x14 }
  - { offsetInCU: 0x6BEF, offset: 0x56613, size: 0x8, addend: 0x0, symName: __ZSt8any_castINSt7__cxx1112basic_stringIcSt11char_traitsIcESaIcEEEET_RKSt3any, symObjAddr: 0xE48, symBinAddr: 0x100012F80, symSize: 0x50 }
  - { offsetInCU: 0x6C33, offset: 0x56657, size: 0x8, addend: 0x0, symName: __ZSt8any_castIfET_RKSt3any, symObjAddr: 0xE0C, symBinAddr: 0x100012F44, symSize: 0x3C }
  - { offsetInCU: 0x6C77, offset: 0x5669B, size: 0x8, addend: 0x0, symName: __ZSt8any_castIiET_RKSt3any, symObjAddr: 0xDD0, symBinAddr: 0x100012F08, symSize: 0x3C }
  - { offsetInCU: 0x6CDF, offset: 0x56703, size: 0x8, addend: 0x0, symName: __ZSteqIcEN9__gnu_cxx11__enable_ifIXsrSt9__is_charIT_E7__valueEbE6__typeERKNSt7__cxx1112basic_stringIS3_St11char_traitsIS3_ESaIS3_EEESE_, symObjAddr: 0xC88, symBinAddr: 0x100012E88, symSize: 0x80 }
  - { offsetInCU: 0x6D27, offset: 0x5674B, size: 0x8, addend: 0x0, symName: __ZNK9__gnu_cxx17__normal_iteratorIPNSt7__cxx1112basic_stringIcSt11char_traitsIcESaIcEEESt6vectorIS6_SaIS6_EEEdeEv, symObjAddr: 0xC70, symBinAddr: 0x100012E70, symSize: 0x18 }
  - { offsetInCU: 0x6D51, offset: 0x56775, size: 0x8, addend: 0x0, symName: __ZN9__gnu_cxx17__normal_iteratorIPNSt7__cxx1112basic_stringIcSt11char_traitsIcESaIcEEESt6vectorIS6_SaIS6_EEEppEv, symObjAddr: 0xC48, symBinAddr: 0x100012E48, symSize: 0x28 }
  - { offsetInCU: 0x6D7D, offset: 0x567A1, size: 0x8, addend: 0x0, symName: __ZN9__gnu_cxxneIPNSt7__cxx1112basic_stringIcSt11char_traitsIcESaIcEEESt6vectorIS6_SaIS6_EEEEbRKNS_17__normal_iteratorIT_T0_EESG_, symObjAddr: 0xC04, symBinAddr: 0x100012E04, symSize: 0x44 }
  - { offsetInCU: 0x6DCE, offset: 0x567F2, size: 0x8, addend: 0x0, symName: __ZNSt6vectorINSt7__cxx1112basic_stringIcSt11char_traitsIcESaIcEEESaIS5_EE3endEv, symObjAddr: 0xBDC, symBinAddr: 0x100012DDC, symSize: 0x28 }
  - { offsetInCU: 0x6DF8, offset: 0x5681C, size: 0x8, addend: 0x0, symName: __ZNSt6vectorINSt7__cxx1112basic_stringIcSt11char_traitsIcESaIcEEESaIS5_EE5beginEv, symObjAddr: 0xBB8, symBinAddr: 0x100012DB8, symSize: 0x24 }
  - { offsetInCU: 0x6E1E, offset: 0x56842, size: 0x8, addend: 0x0, symName: __ZStneIcSt11char_traitsIcESaIcEEbRKNSt7__cxx1112basic_stringIT_T0_T1_EEPKS5_, symObjAddr: 0xB8C, symBinAddr: 0x100012D8C, symSize: 0x2C }
  - { offsetInCU: 0x6F15, offset: 0x56939, size: 0x8, addend: 0x0, symName: __ZNSt6vectorINSt7__cxx1112basic_stringIcSt11char_traitsIcESaIcEEESaIS5_EEC1ESt16initializer_listIS5_ERKS6_, symObjAddr: 0xB1C, symBinAddr: 0x100012D1C, symSize: 0x70 }
  - { offsetInCU: 0x6F46, offset: 0x5696A, size: 0x8, addend: 0x0, symName: __ZNSaINSt7__cxx1112basic_stringIcSt11char_traitsIcESaIcEEEED1Ev, symObjAddr: 0xAFC, symBinAddr: 0x100012CFC, symSize: 0x20 }
  - { offsetInCU: 0x6F70, offset: 0x56994, size: 0x8, addend: 0x0, symName: __ZNSaINSt7__cxx1112basic_stringIcSt11char_traitsIcESaIcEEEED2Ev, symObjAddr: 0xADC, symBinAddr: 0x100012CDC, symSize: 0x20 }
  - { offsetInCU: 0x6FB0, offset: 0x569D4, size: 0x8, addend: 0x0, symName: __ZNSaINSt7__cxx1112basic_stringIcSt11char_traitsIcESaIcEEEEC1Ev, symObjAddr: 0xABC, symBinAddr: 0x100012CBC, symSize: 0x20 }
  - { offsetInCU: 0x6FB1, offset: 0x569D5, size: 0x8, addend: 0x0, symName: __Z8printAnySt3any, symObjAddr: 0x87C, symBinAddr: 0x100012B8C, symSize: 0x130 }
  - { offsetInCU: 0x701C, offset: 0x56A40, size: 0x8, addend: 0x0, symName: __Z12repeatStringiNSt7__cxx1112basic_stringIcSt11char_traitsIcESaIcEEE, symObjAddr: 0x818, symBinAddr: 0x100012B28, symSize: 0x64 }
  - { offsetInCU: 0x7059, offset: 0x56A7D, size: 0x8, addend: 0x0, symName: __Z11anyToStringB5cxx11RSt3any, symObjAddr: 0x7E8, symBinAddr: 0x100012AF8, symSize: 0x30 }
  - { offsetInCU: 0x7083, offset: 0x56AA7, size: 0x8, addend: 0x0, symName: __Z10anyToFloatRSt3any, symObjAddr: 0x7CC, symBinAddr: 0x100012ADC, symSize: 0x1C }
  - { offsetInCU: 0x70B1, offset: 0x56AD5, size: 0x8, addend: 0x0, symName: __Z8anyToIntRSt3any, symObjAddr: 0x7B0, symBinAddr: 0x100012AC0, symSize: 0x1C }
  - { offsetInCU: 0x70E4, offset: 0x56B08, size: 0x8, addend: 0x0, symName: __Z8isStringRSt3any, symObjAddr: 0x788, symBinAddr: 0x100012A98, symSize: 0x28 }
  - { offsetInCU: 0x7115, offset: 0x56B39, size: 0x8, addend: 0x0, symName: __Z7isFloatRSt3any, symObjAddr: 0x760, symBinAddr: 0x100012A70, symSize: 0x28 }
  - { offsetInCU: 0x7144, offset: 0x56B68, size: 0x8, addend: 0x0, symName: __Z5isIntRSt3any, symObjAddr: 0x738, symBinAddr: 0x100012A48, symSize: 0x28 }
  - { offsetInCU: 0x7180, offset: 0x56BA4, size: 0x8, addend: 0x0, symName: __Z12isDigitOrDotc, symObjAddr: 0x6FC, symBinAddr: 0x100012A0C, symSize: 0x3C }
  - { offsetInCU: 0x71F6, offset: 0x56C1A, size: 0x8, addend: 0x0, symName: __Z20fileContentsToStringNSt7__cxx1112basic_stringIcSt11char_traitsIcESaIcEEE, symObjAddr: 0x658, symBinAddr: 0x100012968, symSize: 0xA4 }
  - { offsetInCU: 0x7239, offset: 0x56C5D, size: 0x8, addend: 0x0, symName: __Z10isDataTypeNSt7__cxx1112basic_stringIcSt11char_traitsIcESaIcEEE, symObjAddr: 0x5D4, symBinAddr: 0x1000128E4, symSize: 0x84 }
  - { offsetInCU: 0x72BA, offset: 0x56CDE, size: 0x8, addend: 0x0, symName: __Z9isKeywordNSt7__cxx1112basic_stringIcSt11char_traitsIcESaIcEEE, symObjAddr: 0x550, symBinAddr: 0x100012860, symSize: 0x84 }
  - { offsetInCU: 0x7300, offset: 0x56D24, size: 0x8, addend: 0x0, symName: __Z8runShellv, symObjAddr: 0x45C, symBinAddr: 0x10001276C, symSize: 0xF4 }
  - { offsetInCU: 0x731A, offset: 0x56D3E, size: 0x8, addend: 0x0, symName: __ZNSt11char_traitsIcE7compareEPKcS2_m, symObjAddr: 0x340, symBinAddr: 0x100012688, symSize: 0xE4 }
  - { offsetInCU: 0x738A, offset: 0x56DAE, size: 0x8, addend: 0x0, symName: __ZNSt11char_traitsIcE2ltERKcS2_, symObjAddr: 0x308, symBinAddr: 0x100012650, symSize: 0x38 }
...
